
target/riscv64gc-unknown-none-elf/release/hw:	file format elf64-littleriscv

Disassembly of section .text:

0000000080420000 <.text>:
80420000: 75 71        	addi	sp, sp, -144
80420002: 06 e5        	sd	ra, 136(sp)
80420004: 22 e1        	sd	s0, 128(sp)
80420006: a6 fc        	sd	s1, 120(sp)
80420008: ca f8        	sd	s2, 112(sp)
8042000a: ce f4        	sd	s3, 104(sp)
8042000c: d2 f0        	sd	s4, 96(sp)
8042000e: d6 ec        	sd	s5, 88(sp)
80420010: da e8        	sd	s6, 80(sp)
80420012: de e4        	sd	s7, 72(sp)
80420014: e2 e0        	sd	s8, 64(sp)
80420016: 66 fc        	sd	s9, 56(sp)
80420018: 6a f8        	sd	s10, 48(sp)
8042001a: 6e f4        	sd	s11, 40(sp)
8042001c: 2e 89        	mv	s2, a1
8042001e: aa 89        	mv	s3, a0
80420020: 97 45 00 00  	auipc	a1, 4
80420024: 93 85 05 0a  	addi	a1, a1, 160
80420028: 17 85 00 00  	auipc	a0, 8
8042002c: 13 05 05 1d  	addi	a0, a0, 464
80420030: 0d 8d        	sub	a0, a0, a1
80420032: 11 c5        	beqz	a0, 0x8042003e <.text+0x3e>
80420034: 23 80 05 00  	sb	zero, 0(a1)
80420038: 85 05        	addi	a1, a1, 1
8042003a: 7d 15        	addi	a0, a0, -1
8042003c: 65 fd        	bnez	a0, 0x80420034 <.text+0x34>
8042003e: 17 86 00 00  	auipc	a2, 8
80420042: 13 06 26 08  	addi	a2, a2, 130
80420046: 05 45        	li	a0, 1
80420048: af 36 a6 00  	amoadd.d	a3, a0, (a2)
8042004c: 08 66        	ld	a0, 8(a2)
8042004e: 0f 00 30 02  	fence	r, rw
80420052: 63 05 d5 00  	beq	a0, a3, 0x8042005c <.text+0x5c>
80420056: 0f 00 00 01  	fence	w, 0
8042005a: cd bf        	j	0x8042004c <.text+0x4c>
8042005c: 17 45 00 00  	auipc	a0, 4
80420060: 13 05 45 06  	addi	a0, a0, 100
80420064: 91 65        	lui	a1, 4
80420066: aa 95        	add	a1, a1, a0
80420068: e1 99        	andi	a1, a1, -8
8042006a: 1d 05        	addi	a0, a0, 7
8042006c: 93 77 85 ff  	andi	a5, a0, -8
80420070: 63 f0 f5 02  	bgeu	a1, a5, 0x80420090 <.text+0x90>
80420074: 17 35 00 00  	auipc	a0, 3
80420078: 13 05 c5 00  	addi	a0, a0, 12
8042007c: 17 36 00 00  	auipc	a2, 3
80420080: 13 06 c6 09  	addi	a2, a2, 156
80420084: f9 45        	li	a1, 30
80420086: 97 10 00 00  	auipc	ra, 1
8042008a: e7 80 00 07  	jalr	112(ra)
8042008e: 00 00        	unimp	
80420090: 81 4e        	li	t4, 0
80420092: 17 45 00 00  	auipc	a0, 4
80420096: 13 05 65 00  	addi	a0, a0, 6
8042009a: 03 38 05 00  	ld	a6, 0(a0)
8042009e: 17 45 00 00  	auipc	a0, 4
804200a2: 13 05 25 00  	addi	a0, a0, 2
804200a6: 00 61        	ld	s0, 0(a0)
804200a8: 17 45 00 00  	auipc	a0, 4
804200ac: 13 05 05 00  	mv	a0, a0
804200b0: 83 38 05 00  	ld	a7, 0(a0)
804200b4: 17 45 00 00  	auipc	a0, 4
804200b8: 13 05 c5 ff  	addi	a0, a0, -4
804200bc: 03 3e 05 00  	ld	t3, 0(a0)
804200c0: 93 02 f0 03  	li	t0, 63
804200c4: 05 43        	li	t1, 1
804200c6: fd 43        	li	t2, 31
804200c8: 13 85 87 00  	addi	a0, a5, 8
804200cc: 63 e8 a5 0c  	bltu	a1, a0, 0x8042019c <.text+0x19c>
804200d0: 33 85 f5 40  	sub	a0, a1, a5
804200d4: 21 c9        	beqz	a0, 0x80420124 <.text+0x124>
804200d6: 93 54 15 00  	srli	s1, a0, 1
804200da: 45 8d        	or	a0, a0, s1
804200dc: 93 54 25 00  	srli	s1, a0, 2
804200e0: 45 8d        	or	a0, a0, s1
804200e2: 93 54 45 00  	srli	s1, a0, 4
804200e6: 45 8d        	or	a0, a0, s1
804200e8: 93 54 85 00  	srli	s1, a0, 8
804200ec: 45 8d        	or	a0, a0, s1
804200ee: 93 54 05 01  	srli	s1, a0, 16
804200f2: 45 8d        	or	a0, a0, s1
804200f4: 93 54 05 02  	srli	s1, a0, 32
804200f8: 45 8d        	or	a0, a0, s1
804200fa: 13 45 f5 ff  	not	a0, a0
804200fe: 93 54 15 00  	srli	s1, a0, 1
80420102: b3 f4 04 01  	and	s1, s1, a6
80420106: 05 8d        	sub	a0, a0, s1
80420108: b3 74 85 00  	and	s1, a0, s0
8042010c: 09 81        	srli	a0, a0, 2
8042010e: 61 8d        	and	a0, a0, s0
80420110: 26 95        	add	a0, a0, s1
80420112: 93 54 45 00  	srli	s1, a0, 4
80420116: 26 95        	add	a0, a0, s1
80420118: 33 75 15 01  	and	a0, a0, a7
8042011c: 33 05 c5 03  	mul	a0, a0, t3
80420120: 61 91        	srli	a0, a0, 56
80420122: 19 a0        	j	0x80420128 <.text+0x128>
80420124: 13 05 00 04  	li	a0, 64
80420128: b3 04 f0 40  	neg	s1, a5
8042012c: fd 8c        	and	s1, s1, a5
8042012e: 33 85 a2 40  	sub	a0, t0, a0
80420132: 33 15 a3 00  	sll	a0, t1, a0
80420136: 63 e3 a4 00  	bltu	s1, a0, 0x8042013c <.text+0x13c>
8042013a: aa 84        	mv	s1, a0
8042013c: 9d c8        	beqz	s1, 0x80420172 <.text+0x172>
8042013e: 13 85 f4 ff  	addi	a0, s1, -1
80420142: 13 c7 f4 ff  	not	a4, s1
80420146: 79 8d        	and	a0, a0, a4
80420148: 13 57 15 00  	srli	a4, a0, 1
8042014c: 33 77 07 01  	and	a4, a4, a6
80420150: 19 8d        	sub	a0, a0, a4
80420152: 33 77 85 00  	and	a4, a0, s0
80420156: 09 81        	srli	a0, a0, 2
80420158: 61 8d        	and	a0, a0, s0
8042015a: 3a 95        	add	a0, a0, a4
8042015c: 13 57 45 00  	srli	a4, a0, 4
80420160: 3a 95        	add	a0, a0, a4
80420162: 33 75 15 01  	and	a0, a0, a7
80420166: 33 05 c5 03  	mul	a0, a0, t3
8042016a: 61 91        	srli	a0, a0, 56
8042016c: 63 f7 a3 00  	bgeu	t2, a0, 0x8042017a <.text+0x17a>
80420170: 29 a8        	j	0x8042018a <.text+0x18a>
80420172: 13 05 00 04  	li	a0, 64
80420176: 63 ea a3 00  	bltu	t2, a0, 0x8042018a <.text+0x18a>
8042017a: 0e 05        	slli	a0, a0, 3
8042017c: 32 95        	add	a0, a0, a2
8042017e: 18 69        	ld	a4, 16(a0)
80420180: a6 9e        	add	t4, t4, s1
80420182: 98 e3        	sd	a4, 0(a5)
80420184: 1c e9        	sd	a5, 16(a0)
80420186: a6 97        	add	a5, a5, s1
80420188: 81 b7        	j	0x804200c8 <.text+0xc8>
8042018a: 97 35 00 00  	auipc	a1, 3
8042018e: 93 85 65 fa  	addi	a1, a1, -90
80420192: 97 00 00 00  	auipc	ra, 0
80420196: e7 80 e0 6f  	jalr	1790(ra)
8042019a: 00 00        	unimp	
8042019c: 03 35 06 12  	ld	a0, 288(a2)
804201a0: 81 45        	li	a1, 0
804201a2: 81 4b        	li	s7, 0
804201a4: 17 47 00 00  	auipc	a4, 4
804201a8: 13 07 47 f1  	addi	a4, a4, -236
804201ac: 04 63        	ld	s1, 0(a4)
804201ae: 76 95        	add	a0, a0, t4
804201b0: 23 30 a6 12  	sd	a0, 288(a2)
804201b4: 13 85 16 00  	addi	a0, a3, 1
804201b8: 0f 00 10 03  	fence	rw, w
804201bc: 08 e6        	sd	a0, 8(a2)
804201be: a1 48        	li	a7, 8
804201c0: 46 e0        	sd	a7, 0(sp)
804201c2: 02 e4        	sd	zero, 8(sp)
804201c4: 02 e8        	sd	zero, 16(sp)
804201c6: 05 4a        	li	s4, 1
804201c8: 91 4a        	li	s5, 4
804201ca: 13 0c f0 fb  	li	s8, -65
804201ce: 8d 4d        	li	s11, 3
804201d0: 09 4d        	li	s10, 2
804201d2: 63 83 3b 21  	beq	s7, s3, 0x804203d8 <.text+0x3d8>
804201d6: 13 95 3b 00  	slli	a0, s7, 3
804201da: 4a 95        	add	a0, a0, s2
804201dc: 83 3c 05 00  	ld	s9, 0(a0)
804201e0: 81 46        	li	a3, 0
804201e2: 7d 55        	li	a0, -1
804201e4: 36 87        	mv	a4, a3
804201e6: 33 86 dc 00  	add	a2, s9, a3
804201ea: 03 46 06 00  	lbu	a2, 0(a2)
804201ee: 85 06        	addi	a3, a3, 1
804201f0: 05 05        	addi	a0, a0, 1
804201f2: 6d fa        	bnez	a2, 0x804201e4 <.text+0x1e4>
804201f4: 3d 46        	li	a2, 15
804201f6: 63 63 c5 00  	bltu	a0, a2, 0x804201fc <.text+0x1fc>
804201fa: 3d 45        	li	a0, 15
804201fc: 13 8b f6 ff  	addi	s6, a3, -1
80420200: 63 83 46 1b  	beq	a3, s4, 0x804203a6 <.text+0x3a6>
80420204: 01 46        	li	a2, 0
80420206: 13 45 f5 ff  	not	a0, a0
8042020a: b3 07 d5 00  	add	a5, a0, a3
8042020e: 13 85 7c 00  	addi	a0, s9, 7
80420212: 61 99        	andi	a0, a0, -8
80420214: 33 0e 95 41  	sub	t3, a0, s9
80420218: 33 85 cc 00  	add	a0, s9, a2
8042021c: 03 44 05 00  	lbu	s0, 0(a0)
80420220: 13 15 84 03  	slli	a0, s0, 56
80420224: 93 56 85 43  	srai	a3, a0, 56
80420228: 63 c6 06 04  	bltz	a3, 0x80420274 <.text+0x274>
8042022c: 13 05 1e 00  	addi	a0, t3, 1
80420230: 33 35 a0 00  	snez	a0, a0
80420234: bb 06 ce 40  	subw	a3, t3, a2
80420238: 9d 8a        	andi	a3, a3, 7
8042023a: 93 b6 16 00  	seqz	a3, a3
8042023e: 75 8d        	and	a0, a0, a3
80420240: 2d c5        	beqz	a0, 0x804202aa <.text+0x2aa>
80420242: 63 7d f6 00  	bgeu	a2, a5, 0x8042025c <.text+0x25c>
80420246: 33 85 cc 00  	add	a0, s9, a2
8042024a: 14 61        	ld	a3, 0(a0)
8042024c: e5 8e        	and	a3, a3, s1
8042024e: 99 e6        	bnez	a3, 0x8042025c <.text+0x25c>
80420250: 08 65        	ld	a0, 8(a0)
80420252: 65 8d        	and	a0, a0, s1
80420254: 01 e5        	bnez	a0, 0x8042025c <.text+0x25c>
80420256: 41 06        	addi	a2, a2, 16
80420258: e3 67 f6 fe  	bltu	a2, a5, 0x80420246 <.text+0x246>
8042025c: 63 73 66 15  	bgeu	a2, s6, 0x804203a2 <.text+0x3a2>
80420260: 33 85 cc 00  	add	a0, s9, a2
80420264: 03 05 05 00  	lb	a0, 0(a0)
80420268: 63 4d 05 12  	bltz	a0, 0x804203a2 <.text+0x3a2>
8042026c: 05 06        	addi	a2, a2, 1
8042026e: e3 19 c7 fe  	bne	a4, a2, 0x80420260 <.text+0x260>
80420272: 15 aa        	j	0x804203a6 <.text+0x3a6>
80420274: 17 35 00 00  	auipc	a0, 3
80420278: 13 05 c5 2c  	addi	a0, a0, 716
8042027c: 22 95        	add	a0, a0, s0
8042027e: 03 45 05 00  	lbu	a0, 0(a0)
80420282: 85 42        	li	t0, 1
80420284: 13 03 00 10  	li	t1, 256
80420288: 63 03 55 03  	beq	a0, s5, 0x804202ae <.text+0x2ae>
8042028c: 63 05 b5 05  	beq	a0, s11, 0x804202d6 <.text+0x2d6>
80420290: 63 15 a5 17  	bne	a0, s10, 0x804203fa <.text+0x3fa>
80420294: 93 06 16 00  	addi	a3, a2, 1
80420298: 63 f9 66 15  	bgeu	a3, s6, 0x804203ea <.text+0x3ea>
8042029c: 33 85 dc 00  	add	a0, s9, a3
804202a0: 03 05 05 00  	lb	a0, 0(a0)
804202a4: 63 5d ac 0e  	bge	s8, a0, 0x8042039e <.text+0x39e>
804202a8: 89 aa        	j	0x804203fa <.text+0x3fa>
804202aa: 05 06        	addi	a2, a2, 1
804202ac: dd a8        	j	0x804203a2 <.text+0x3a2>
804202ae: 13 05 16 00  	addi	a0, a2, 1
804202b2: 63 7d 65 13  	bgeu	a0, s6, 0x804203ec <.text+0x3ec>
804202b6: 66 95        	add	a0, a0, s9
804202b8: 83 03 05 00  	lb	t2, 0(a0)
804202bc: 13 05 00 0f  	li	a0, 240
804202c0: 63 0f a4 02  	beq	s0, a0, 0x804202fe <.text+0x2fe>
804202c4: 13 05 40 0f  	li	a0, 244
804202c8: 63 14 a4 04  	bne	s0, a0, 0x80420310 <.text+0x310>
804202cc: 13 05 f0 f8  	li	a0, -113
804202d0: 63 5c 75 04  	bge	a0, t2, 0x80420328 <.text+0x328>
804202d4: 1d a2        	j	0x804203fa <.text+0x3fa>
804202d6: 13 05 16 00  	addi	a0, a2, 1
804202da: 63 79 65 11  	bgeu	a0, s6, 0x804203ec <.text+0x3ec>
804202de: 66 95        	add	a0, a0, s9
804202e0: 83 03 05 00  	lb	t2, 0(a0)
804202e4: 13 05 00 0e  	li	a0, 224
804202e8: 63 04 a4 06  	beq	s0, a0, 0x80420350 <.text+0x350>
804202ec: 13 05 d0 0e  	li	a0, 237
804202f0: 63 17 a4 06  	bne	s0, a0, 0x8042035e <.text+0x35e>
804202f4: 13 05 00 fa  	li	a0, -96
804202f8: 63 c9 a3 08  	blt	t2, a0, 0x8042038a <.text+0x38a>
804202fc: fd a8        	j	0x804203fa <.text+0x3fa>
804202fe: 1b 85 03 07  	addiw	a0, t2, 112
80420302: 13 75 f5 0f  	andi	a0, a0, 255
80420306: 93 06 00 03  	li	a3, 48
8042030a: 63 6f d5 00  	bltu	a0, a3, 0x80420328 <.text+0x328>
8042030e: f5 a0        	j	0x804203fa <.text+0x3fa>
80420310: bd 26        	addiw	a3, a3, 15
80420312: 93 f6 f6 0f  	andi	a3, a3, 255
80420316: 93 b6 36 00  	sltiu	a3, a3, 3
8042031a: 13 a4 03 00  	slti	s0, t2, 0
8042031e: e1 8e        	and	a3, a3, s0
80420320: 13 b5 03 fc  	sltiu	a0, t2, -64
80420324: 75 8d        	and	a0, a0, a3
80420326: 71 c9        	beqz	a0, 0x804203fa <.text+0x3fa>
80420328: 13 05 26 00  	addi	a0, a2, 2
8042032c: 63 7f 65 0b  	bgeu	a0, s6, 0x804203ea <.text+0x3ea>
80420330: 66 95        	add	a0, a0, s9
80420332: 03 05 05 00  	lb	a0, 0(a0)
80420336: 63 4d ac 0a  	blt	s8, a0, 0x804203f0 <.text+0x3f0>
8042033a: 93 06 36 00  	addi	a3, a2, 3
8042033e: 63 f6 66 0b  	bgeu	a3, s6, 0x804203ea <.text+0x3ea>
80420342: 33 85 dc 00  	add	a0, s9, a3
80420346: 03 05 05 00  	lb	a0, 0(a0)
8042034a: 63 5a ac 04  	bge	s8, a0, 0x8042039e <.text+0x39e>
8042034e: 65 a0        	j	0x804203f6 <.text+0x3f6>
80420350: 13 f5 03 fe  	andi	a0, t2, -32
80420354: 93 06 00 fa  	li	a3, -96
80420358: 63 09 d5 02  	beq	a0, a3, 0x8042038a <.text+0x38a>
8042035c: 79 a8        	j	0x804203fa <.text+0x3fa>
8042035e: 1b 85 f6 01  	addiw	a0, a3, 31
80420362: 13 75 f5 0f  	andi	a0, a0, 255
80420366: 31 44        	li	s0, 12
80420368: 63 75 85 00  	bgeu	a0, s0, 0x80420372 <.text+0x372>
8042036c: 63 5f 7c 00  	bge	s8, t2, 0x8042038a <.text+0x38a>
80420370: 69 a0        	j	0x804203fa <.text+0x3fa>
80420372: 13 f5 e6 ff  	andi	a0, a3, -2
80420376: 49 05        	addi	a0, a0, 18
80420378: 13 35 15 00  	seqz	a0, a0
8042037c: 93 a6 03 00  	slti	a3, t2, 0
80420380: 75 8d        	and	a0, a0, a3
80420382: 93 b6 03 fc  	sltiu	a3, t2, -64
80420386: 75 8d        	and	a0, a0, a3
80420388: 2d c9        	beqz	a0, 0x804203fa <.text+0x3fa>
8042038a: 93 06 26 00  	addi	a3, a2, 2
8042038e: 63 fe 66 05  	bgeu	a3, s6, 0x804203ea <.text+0x3ea>
80420392: 33 85 dc 00  	add	a0, s9, a3
80420396: 03 05 05 00  	lb	a0, 0(a0)
8042039a: 63 4b ac 04  	blt	s8, a0, 0x804203f0 <.text+0x3f0>
8042039e: 13 86 16 00  	addi	a2, a3, 1
804203a2: e3 6b 66 e7  	bltu	a2, s6, 0x80420218 <.text+0x218>
804203a6: 22 65        	ld	a0, 8(sp)
804203a8: 63 99 a5 00  	bne	a1, a0, 0x804203ba <.text+0x3ba>
804203ac: 0a 85        	mv	a0, sp
804203ae: 97 20 00 00  	auipc	ra, 2
804203b2: e7 80 20 c8  	jalr	-894(ra)
804203b6: c2 65        	ld	a1, 16(sp)
804203b8: 82 68        	ld	a7, 0(sp)
804203ba: 13 95 45 00  	slli	a0, a1, 4
804203be: 46 95        	add	a0, a0, a7
804203c0: 23 30 95 01  	sd	s9, 0(a0)
804203c4: 23 34 65 01  	sd	s6, 8(a0)
804203c8: 42 65        	ld	a0, 16(sp)
804203ca: 85 0b        	addi	s7, s7, 1
804203cc: 93 05 15 00  	addi	a1, a0, 1
804203d0: 2e e8        	sd	a1, 16(sp)
804203d2: 5a 88        	mv	a6, s6
804203d4: e3 91 3b e1  	bne	s7, s3, 0x804201d6 <.text+0x1d6>
804203d8: 97 00 00 00  	auipc	ra, 0
804203dc: e7 80 00 04  	jalr	64(ra)
804203e0: 97 20 00 00  	auipc	ra, 2
804203e4: e7 80 20 b2  	jalr	-1246(ra)
804203e8: 00 00        	unimp	
804203ea: 01 43        	li	t1, 0
804203ec: 81 42        	li	t0, 0
804203ee: 31 a0        	j	0x804203fa <.text+0x3fa>
804203f0: 13 03 00 20  	li	t1, 512
804203f4: 19 a0        	j	0x804203fa <.text+0x3fa>
804203f6: 13 03 00 30  	li	t1, 768
804203fa: 41 75        	lui	a0, 1048560
804203fc: 33 75 a8 00  	and	a0, a6, a0
80420400: 33 65 55 00  	or	a0, a0, t0
80420404: 33 65 65 00  	or	a0, a0, t1
80420408: 32 ec        	sd	a2, 24(sp)
8042040a: 2a f0        	sd	a0, 32(sp)
8042040c: 28 08        	addi	a0, sp, 24
8042040e: 97 10 00 00  	auipc	ra, 1
80420412: e7 80 60 0e  	jalr	230(ra)
80420416: 00 00        	unimp	
80420418: 39 71        	addi	sp, sp, -64
8042041a: 06 fc        	sd	ra, 56(sp)
8042041c: 17 35 00 00  	auipc	a0, 3
80420420: 13 05 c5 bf  	addi	a0, a0, -1028
80420424: 2a e4        	sd	a0, 8(sp)
80420426: 05 45        	li	a0, 1
80420428: 2a e8        	sd	a0, 16(sp)
8042042a: 02 ec        	sd	zero, 24(sp)
8042042c: 17 35 00 00  	auipc	a0, 3
80420430: 13 05 c5 42  	addi	a0, a0, 1068
80420434: 2a f4        	sd	a0, 40(sp)
80420436: 02 f8        	sd	zero, 48(sp)
80420438: 28 00        	addi	a0, sp, 8
8042043a: 97 20 00 00  	auipc	ra, 2
8042043e: e7 80 40 1b  	jalr	436(ra)
80420442: 01 45        	li	a0, 0
80420444: e2 70        	ld	ra, 56(sp)
80420446: 21 61        	addi	sp, sp, 64
80420448: 82 80        	ret
8042044a: 17 23 00 00  	auipc	t1, 2
8042044e: 67 00 63 ad  	jr	-1322(t1)
80420452: 17 23 00 00  	auipc	t1, 2
80420456: 67 00 63 ad  	jr	-1322(t1)
8042045a: 17 23 00 00  	auipc	t1, 2
8042045e: 67 00 63 ad  	jr	-1322(t1)
80420462: 97 00 00 00  	auipc	ra, 0
80420466: e7 80 a0 05  	jalr	90(ra)
8042046a: 00 00        	unimp	
8042046c: 39 71        	addi	sp, sp, -64
8042046e: 06 fc        	sd	ra, 56(sp)
80420470: 17 35 00 00  	auipc	a0, 3
80420474: 13 05 85 be  	addi	a0, a0, -1048
80420478: 2a e4        	sd	a0, 8(sp)
8042047a: 05 45        	li	a0, 1
8042047c: 2a e8        	sd	a0, 16(sp)
8042047e: 02 ec        	sd	zero, 24(sp)
80420480: 17 35 00 00  	auipc	a0, 3
80420484: 13 05 85 3d  	addi	a0, a0, 984
80420488: 2a f4        	sd	a0, 40(sp)
8042048a: 02 f8        	sd	zero, 48(sp)
8042048c: 97 35 00 00  	auipc	a1, 3
80420490: 93 85 c5 bd  	addi	a1, a1, -1060
80420494: 28 00        	addi	a0, sp, 8
80420496: 97 00 00 00  	auipc	ra, 0
8042049a: e7 80 e0 3b  	jalr	958(ra)
8042049e: 00 00        	unimp	
804204a0: 41 11        	addi	sp, sp, -16
804204a2: 06 e4        	sd	ra, 8(sp)
804204a4: 97 00 00 00  	auipc	ra, 0
804204a8: e7 80 a0 00  	jalr	10(ra)
804204ac: 00 00        	unimp	
804204ae: 41 11        	addi	sp, sp, -16
804204b0: 06 e4        	sd	ra, 8(sp)
804204b2: 97 00 00 00  	auipc	ra, 0
804204b6: e7 80 00 fb  	jalr	-80(ra)
804204ba: 00 00        	unimp	
804204bc: 41 11        	addi	sp, sp, -16
804204be: 06 e4        	sd	ra, 8(sp)
804204c0: 97 20 00 00  	auipc	ra, 2
804204c4: e7 80 40 a0  	jalr	-1532(ra)
804204c8: 00 00        	unimp	
804204ca: 17 83 00 00  	auipc	t1, 8
804204ce: 13 03 63 bf  	addi	t1, t1, -1034
804204d2: 05 46        	li	a2, 1
804204d4: af 32 c3 00  	amoadd.d	t0, a2, (t1)
804204d8: 03 36 83 00  	ld	a2, 8(t1)
804204dc: 0f 00 30 02  	fence	r, rw
804204e0: 63 05 56 00  	beq	a2, t0, 0x804204ea <.text+0x4ea>
804204e4: 0f 00 00 01  	fence	w, 0
804204e8: c5 bf        	j	0x804204d8 <.text+0x4d8>
804204ea: 85 46        	li	a3, 1
804204ec: 09 47        	li	a4, 2
804204ee: 17 4e 00 00  	auipc	t3, 4
804204f2: 13 0e 2e b1  	addi	t3, t3, -1262
804204f6: 97 43 00 00  	auipc	t2, 4
804204fa: 93 83 23 b1  	addi	t2, t2, -1262
804204fe: 97 48 00 00  	auipc	a7, 4
80420502: 93 88 28 b1  	addi	a7, a7, -1262
80420506: 17 48 00 00  	auipc	a6, 4
8042050a: 13 08 28 b1  	addi	a6, a6, -1262
8042050e: 63 65 e5 06  	bltu	a0, a4, 0x80420578 <.text+0x578>
80420512: 93 06 f5 ff  	addi	a3, a0, -1
80420516: 13 d7 16 00  	srli	a4, a3, 1
8042051a: d9 8e        	or	a3, a3, a4
8042051c: 13 d7 26 00  	srli	a4, a3, 2
80420520: d9 8e        	or	a3, a3, a4
80420522: 13 d7 46 00  	srli	a4, a3, 4
80420526: d9 8e        	or	a3, a3, a4
80420528: 13 d7 86 00  	srli	a4, a3, 8
8042052c: d9 8e        	or	a3, a3, a4
8042052e: 13 d7 06 01  	srli	a4, a3, 16
80420532: d9 8e        	or	a3, a3, a4
80420534: 13 d7 06 02  	srli	a4, a3, 32
80420538: d9 8e        	or	a3, a3, a4
8042053a: 03 37 0e 00  	ld	a4, 0(t3)
8042053e: 93 c6 f6 ff  	not	a3, a3
80420542: 03 b6 03 00  	ld	a2, 0(t2)
80420546: 93 d7 16 00  	srli	a5, a3, 1
8042054a: 7d 8f        	and	a4, a4, a5
8042054c: 99 8e        	sub	a3, a3, a4
8042054e: 33 f7 c6 00  	and	a4, a3, a2
80420552: 89 82        	srli	a3, a3, 2
80420554: 75 8e        	and	a2, a2, a3
80420556: 3a 96        	add	a2, a2, a4
80420558: 83 b6 08 00  	ld	a3, 0(a7)
8042055c: 03 37 08 00  	ld	a4, 0(a6)
80420560: 93 57 46 00  	srli	a5, a2, 4
80420564: 3e 96        	add	a2, a2, a5
80420566: 75 8e        	and	a2, a2, a3
80420568: 33 06 e6 02  	mul	a2, a2, a4
8042056c: 61 92        	srli	a2, a2, 56
8042056e: fd 56        	li	a3, -1
80420570: 33 d6 c6 00  	srl	a2, a3, a2
80420574: 93 06 16 00  	addi	a3, a2, 1
80420578: 63 e3 b6 00  	bltu	a3, a1, 0x8042057e <.text+0x57e>
8042057c: b6 85        	mv	a1, a3
8042057e: 21 46        	li	a2, 8
80420580: 63 63 b6 00  	bltu	a2, a1, 0x80420586 <.text+0x586>
80420584: a1 45        	li	a1, 8
80420586: a1 c1        	beqz	a1, 0x804205c6 <.text+0x5c6>
80420588: 13 86 f5 ff  	addi	a2, a1, -1
8042058c: 93 c6 f5 ff  	not	a3, a1
80420590: 03 37 0e 00  	ld	a4, 0(t3)
80420594: 75 8e        	and	a2, a2, a3
80420596: 83 b6 03 00  	ld	a3, 0(t2)
8042059a: 93 57 16 00  	srli	a5, a2, 1
8042059e: 7d 8f        	and	a4, a4, a5
804205a0: 19 8e        	sub	a2, a2, a4
804205a2: 33 77 d6 00  	and	a4, a2, a3
804205a6: 09 82        	srli	a2, a2, 2
804205a8: 75 8e        	and	a2, a2, a3
804205aa: 3a 96        	add	a2, a2, a4
804205ac: 83 b6 08 00  	ld	a3, 0(a7)
804205b0: 03 37 08 00  	ld	a4, 0(a6)
804205b4: 93 57 46 00  	srli	a5, a2, 4
804205b8: 3e 96        	add	a2, a2, a5
804205ba: 75 8e        	and	a2, a2, a3
804205bc: 33 06 e6 02  	mul	a2, a2, a4
804205c0: 93 58 86 03  	srli	a7, a2, 56
804205c4: 19 a0        	j	0x804205ca <.text+0x5ca>
804205c6: 93 08 00 04  	li	a7, 64
804205ca: 13 06 00 02  	li	a2, 32
804205ce: c6 86        	mv	a3, a7
804205d0: 63 64 16 01  	bltu	a2, a7, 0x804205d8 <.text+0x5d8>
804205d4: 93 06 00 02  	li	a3, 32
804205d8: 13 98 38 00  	slli	a6, a7, 3
804205dc: b3 07 03 01  	add	a5, t1, a6
804205e0: 46 87        	mv	a4, a7
804205e2: 63 8b e6 06  	beq	a3, a4, 0x80420658 <.text+0x658>
804205e6: 90 6b        	ld	a2, 16(a5)
804205e8: 05 07        	addi	a4, a4, 1
804205ea: a1 07        	addi	a5, a5, 8
804205ec: 7d da        	beqz	a2, 0x804205e2 <.text+0x5e2>
804205ee: 13 8f 18 00  	addi	t5, a7, 1
804205f2: fd 43        	li	t2, 31
804205f4: 13 0e 00 02  	li	t3, 32
804205f8: 85 4e        	li	t4, 1
804205fa: 63 7a ef 02  	bgeu	t5, a4, 0x8042062e <.text+0x62e>
804205fe: 93 06 f7 ff  	addi	a3, a4, -1
80420602: 63 e4 d3 06  	bltu	t2, a3, 0x8042066a <.text+0x66a>
80420606: 83 3f 06 00  	ld	t6, 0(a2)
8042060a: 79 17        	addi	a4, a4, -2
8042060c: 23 b4 f7 01  	sd	t6, 8(a5)
80420610: 63 74 c7 07  	bgeu	a4, t3, 0x80420678 <.text+0x678>
80420614: 83 bf 07 00  	ld	t6, 0(a5)
80420618: 33 97 ee 00  	sll	a4, t4, a4
8042061c: 32 97        	add	a4, a4, a2
8042061e: 23 30 f7 01  	sd	t6, 0(a4)
80420622: 18 e2        	sd	a4, 0(a2)
80420624: 90 e3        	sd	a2, 0(a5)
80420626: e1 17        	addi	a5, a5, -8
80420628: 36 87        	mv	a4, a3
8042062a: e3 6a ef fc  	bltu	t5, a4, 0x804205fe <.text+0x5fe>
8042062e: 13 06 00 02  	li	a2, 32
80420632: 63 fd c8 04  	bgeu	a7, a2, 0x8042068c <.text+0x68c>
80420636: b3 06 03 01  	add	a3, t1, a6
8042063a: 90 6a        	ld	a2, 16(a3)
8042063c: 31 ce        	beqz	a2, 0x80420698 <.text+0x698>
8042063e: 18 62        	ld	a4, 0(a2)
80420640: c1 06        	addi	a3, a3, 16
80420642: 98 e2        	sd	a4, 0(a3)
80420644: 93 07 03 10  	addi	a5, t1, 256
80420648: 94 6b        	ld	a3, 16(a5)
8042064a: 98 6f        	ld	a4, 24(a5)
8042064c: 36 95        	add	a0, a0, a3
8042064e: 88 eb        	sd	a0, 16(a5)
80420650: 33 05 b7 00  	add	a0, a4, a1
80420654: 88 ef        	sd	a0, 24(a5)
80420656: 11 a0        	j	0x8042065a <.text+0x65a>
80420658: 01 46        	li	a2, 0
8042065a: 13 85 12 00  	addi	a0, t0, 1
8042065e: 0f 00 10 03  	fence	rw, w
80420662: 23 34 a3 00  	sd	a0, 8(t1)
80420666: 32 85        	mv	a0, a2
80420668: 82 80        	ret
8042066a: 13 05 f7 ff  	addi	a0, a4, -1
8042066e: 97 35 00 00  	auipc	a1, 3
80420672: 93 85 a5 ad  	addi	a1, a1, -1318
80420676: 31 a0        	j	0x80420682 <.text+0x682>
80420678: 97 35 00 00  	auipc	a1, 3
8042067c: 93 85 85 ae  	addi	a1, a1, -1304
80420680: 7d 55        	li	a0, -1
80420682: 97 00 00 00  	auipc	ra, 0
80420686: e7 80 e0 20  	jalr	526(ra)
8042068a: 00 00        	unimp	
8042068c: 97 35 00 00  	auipc	a1, 3
80420690: 93 85 c5 ae  	addi	a1, a1, -1300
80420694: 46 85        	mv	a0, a7
80420696: f5 b7        	j	0x80420682 <.text+0x682>
80420698: 97 10 00 00  	auipc	ra, 1
8042069c: e7 80 80 de  	jalr	-536(ra)
804206a0: 00 00        	unimp	
804206a2: 97 8e 00 00  	auipc	t4, 8
804206a6: 93 8e ee a1  	addi	t4, t4, -1506
804206aa: 85 46        	li	a3, 1
804206ac: 2f be de 00  	amoadd.d	t3, a3, (t4)
804206b0: 83 b6 8e 00  	ld	a3, 8(t4)
804206b4: 0f 00 30 02  	fence	r, rw
804206b8: 63 85 c6 01  	beq	a3, t3, 0x804206c2 <.text+0x6c2>
804206bc: 0f 00 00 01  	fence	w, 0
804206c0: c5 bf        	j	0x804206b0 <.text+0x6b0>
804206c2: 85 46        	li	a3, 1
804206c4: 09 47        	li	a4, 2
804206c6: 17 43 00 00  	auipc	t1, 4
804206ca: 13 03 a3 95  	addi	t1, t1, -1702
804206ce: 97 42 00 00  	auipc	t0, 4
804206d2: 93 82 a2 95  	addi	t0, t0, -1702
804206d6: 97 48 00 00  	auipc	a7, 4
804206da: 93 88 a8 95  	addi	a7, a7, -1702
804206de: 17 48 00 00  	auipc	a6, 4
804206e2: 13 08 a8 95  	addi	a6, a6, -1702
804206e6: 63 e6 e5 06  	bltu	a1, a4, 0x80420752 <.text+0x752>
804206ea: 93 86 f5 ff  	addi	a3, a1, -1
804206ee: 13 d7 16 00  	srli	a4, a3, 1
804206f2: d9 8e        	or	a3, a3, a4
804206f4: 13 d7 26 00  	srli	a4, a3, 2
804206f8: d9 8e        	or	a3, a3, a4
804206fa: 13 d7 46 00  	srli	a4, a3, 4
804206fe: d9 8e        	or	a3, a3, a4
80420700: 13 d7 86 00  	srli	a4, a3, 8
80420704: d9 8e        	or	a3, a3, a4
80420706: 13 d7 06 01  	srli	a4, a3, 16
8042070a: d9 8e        	or	a3, a3, a4
8042070c: 13 d7 06 02  	srli	a4, a3, 32
80420710: d9 8e        	or	a3, a3, a4
80420712: 83 33 03 00  	ld	t2, 0(t1)
80420716: 93 c6 f6 ff  	not	a3, a3
8042071a: 83 b7 02 00  	ld	a5, 0(t0)
8042071e: 13 d7 16 00  	srli	a4, a3, 1
80420722: 33 77 77 00  	and	a4, a4, t2
80420726: 99 8e        	sub	a3, a3, a4
80420728: 33 f7 f6 00  	and	a4, a3, a5
8042072c: 89 82        	srli	a3, a3, 2
8042072e: fd 8e        	and	a3, a3, a5
80420730: ba 96        	add	a3, a3, a4
80420732: 83 b3 08 00  	ld	t2, 0(a7)
80420736: 83 37 08 00  	ld	a5, 0(a6)
8042073a: 13 d7 46 00  	srli	a4, a3, 4
8042073e: ba 96        	add	a3, a3, a4
80420740: b3 f6 76 00  	and	a3, a3, t2
80420744: b3 86 f6 02  	mul	a3, a3, a5
80420748: e1 92        	srli	a3, a3, 56
8042074a: 7d 57        	li	a4, -1
8042074c: b3 56 d7 00  	srl	a3, a4, a3
80420750: 85 06        	addi	a3, a3, 1
80420752: 63 e3 c6 00  	bltu	a3, a2, 0x80420758 <.text+0x758>
80420756: 36 86        	mv	a2, a3
80420758: a1 46        	li	a3, 8
8042075a: 63 e3 c6 00  	bltu	a3, a2, 0x80420760 <.text+0x760>
8042075e: 21 46        	li	a2, 8
80420760: 31 c2        	beqz	a2, 0x804207a4 <.text+0x7a4>
80420762: 93 06 f6 ff  	addi	a3, a2, -1
80420766: 13 47 f6 ff  	not	a4, a2
8042076a: 03 33 03 00  	ld	t1, 0(t1)
8042076e: f9 8e        	and	a3, a3, a4
80420770: 03 b7 02 00  	ld	a4, 0(t0)
80420774: 93 d7 16 00  	srli	a5, a3, 1
80420778: b3 f7 67 00  	and	a5, a5, t1
8042077c: 9d 8e        	sub	a3, a3, a5
8042077e: b3 f7 e6 00  	and	a5, a3, a4
80420782: 89 82        	srli	a3, a3, 2
80420784: f9 8e        	and	a3, a3, a4
80420786: be 96        	add	a3, a3, a5
80420788: 83 b8 08 00  	ld	a7, 0(a7)
8042078c: 83 37 08 00  	ld	a5, 0(a6)
80420790: 13 d7 46 00  	srli	a4, a3, 4
80420794: ba 96        	add	a3, a3, a4
80420796: b3 f6 16 01  	and	a3, a3, a7
8042079a: b3 86 f6 02  	mul	a3, a3, a5
8042079e: 13 d3 86 03  	srli	t1, a3, 56
804207a2: 19 a0        	j	0x804207a8 <.text+0x7a8>
804207a4: 13 03 00 04  	li	t1, 64
804207a8: 7d 48        	li	a6, 31
804207aa: 63 62 68 08  	bltu	a6, t1, 0x8042082e <.text+0x82e>
804207ae: 93 16 33 00  	slli	a3, t1, 3
804207b2: f6 96        	add	a3, a3, t4
804207b4: 98 6a        	ld	a4, 16(a3)
804207b6: 18 e1        	sd	a4, 0(a0)
804207b8: 88 ea        	sd	a0, 16(a3)
804207ba: 85 48        	li	a7, 1
804207bc: aa 82        	mv	t0, a0
804207be: b3 96 68 00  	sll	a3, a7, t1
804207c2: 13 17 33 00  	slli	a4, t1, 3
804207c6: 76 97        	add	a4, a4, t4
804207c8: 93 03 07 01  	addi	t2, a4, 16
804207cc: b3 c6 56 00  	xor	a3, a3, t0
804207d0: 9e 87        	mv	a5, t2
804207d2: 15 cd        	beqz	a0, 0x8042080e <.text+0x80e>
804207d4: 18 61        	ld	a4, 0(a0)
804207d6: 63 86 a6 00  	beq	a3, a0, 0x804207e2 <.text+0x7e2>
804207da: aa 87        	mv	a5, a0
804207dc: 3a 85        	mv	a0, a4
804207de: 7d f9        	bnez	a0, 0x804207d4 <.text+0x7d4>
804207e0: 3d a0        	j	0x8042080e <.text+0x80e>
804207e2: 98 e3        	sd	a4, 0(a5)
804207e4: 03 b5 03 00  	ld	a0, 0(t2)
804207e8: 01 c5        	beqz	a0, 0x804207f0 <.text+0x7f0>
804207ea: 08 61        	ld	a0, 0(a0)
804207ec: 23 b0 a3 00  	sd	a0, 0(t2)
804207f0: 63 05 03 05  	beq	t1, a6, 0x8042083a <.text+0x83a>
804207f4: 63 e3 d2 00  	bltu	t0, a3, 0x804207fa <.text+0x7fa>
804207f8: b6 82        	mv	t0, a3
804207fa: 05 03        	addi	t1, t1, 1
804207fc: 13 15 33 00  	slli	a0, t1, 3
80420800: 76 95        	add	a0, a0, t4
80420802: 14 69        	ld	a3, 16(a0)
80420804: 16 87        	mv	a4, t0
80420806: 14 e3        	sd	a3, 0(a4)
80420808: 18 e9        	sd	a4, 16(a0)
8042080a: 16 85        	mv	a0, t0
8042080c: 4d bf        	j	0x804207be <.text+0x7be>
8042080e: 13 87 0e 10  	addi	a4, t4, 256
80420812: 08 6b        	ld	a0, 16(a4)
80420814: 14 6f        	ld	a3, 24(a4)
80420816: 0d 8d        	sub	a0, a0, a1
80420818: 08 eb        	sd	a0, 16(a4)
8042081a: 33 85 c6 40  	sub	a0, a3, a2
8042081e: 08 ef        	sd	a0, 24(a4)
80420820: 13 05 1e 00  	addi	a0, t3, 1
80420824: 0f 00 10 03  	fence	rw, w
80420828: 23 b4 ae 00  	sd	a0, 8(t4)
8042082c: 82 80        	ret
8042082e: 97 35 00 00  	auipc	a1, 3
80420832: 93 85 25 9a  	addi	a1, a1, -1630
80420836: 1a 85        	mv	a0, t1
80420838: 39 a0        	j	0x80420846 <.text+0x846>
8042083a: 97 35 00 00  	auipc	a1, 3
8042083e: 93 85 e5 9a  	addi	a1, a1, -1618
80420842: 13 05 00 02  	li	a0, 32
80420846: 97 00 00 00  	auipc	ra, 0
8042084a: e7 80 a0 04  	jalr	74(ra)
8042084e: 00 00        	unimp	
80420850: 08 61        	ld	a0, 0(a0)
80420852: 01 a0        	j	0x80420852 <.text+0x852>
80420854: 79 71        	addi	sp, sp, -48
80420856: 06 f4        	sd	ra, 40(sp)
80420858: 17 36 00 00  	auipc	a2, 3
8042085c: 13 06 06 00  	mv	a2, a2
80420860: 32 e0        	sd	a2, 0(sp)
80420862: 17 36 00 00  	auipc	a2, 3
80420866: 13 06 e6 a7  	addi	a2, a2, -1410
8042086a: 32 e4        	sd	a2, 8(sp)
8042086c: 2a e8        	sd	a0, 16(sp)
8042086e: 2e ec        	sd	a1, 24(sp)
80420870: 05 45        	li	a0, 1
80420872: 23 00 a1 02  	sb	a0, 32(sp)
80420876: 0a 85        	mv	a0, sp
80420878: 97 20 00 00  	auipc	ra, 2
8042087c: e7 80 40 83  	jalr	-1996(ra)
80420880: 00 00        	unimp	
80420882: 82 80        	ret
80420884: 17 35 00 00  	auipc	a0, 3
80420888: 13 05 c5 7b  	addi	a0, a0, 1980
8042088c: 08 61        	ld	a0, 0(a0)
8042088e: 82 80        	ret
80420890: 59 71        	addi	sp, sp, -112
80420892: 86 f4        	sd	ra, 104(sp)
80420894: 2a e4        	sd	a0, 8(sp)
80420896: 13 05 00 02  	li	a0, 32
8042089a: 2a e8        	sd	a0, 16(sp)
8042089c: 08 08        	addi	a0, sp, 16
8042089e: aa e4        	sd	a0, 72(sp)
804208a0: 17 05 00 00  	auipc	a0, 0
804208a4: 13 05 25 03  	addi	a0, a0, 50
804208a8: aa e8        	sd	a0, 80(sp)
804208aa: 30 00        	addi	a2, sp, 8
804208ac: b2 ec        	sd	a2, 88(sp)
804208ae: aa f0        	sd	a0, 96(sp)
804208b0: 17 35 00 00  	auipc	a0, 3
804208b4: 13 05 05 a0  	addi	a0, a0, -1536
804208b8: 2a ec        	sd	a0, 24(sp)
804208ba: 09 45        	li	a0, 2
804208bc: 2a f0        	sd	a0, 32(sp)
804208be: 02 f4        	sd	zero, 40(sp)
804208c0: b0 00        	addi	a2, sp, 72
804208c2: 32 fc        	sd	a2, 56(sp)
804208c4: aa e0        	sd	a0, 64(sp)
804208c6: 28 08        	addi	a0, sp, 24
804208c8: 97 00 00 00  	auipc	ra, 0
804208cc: e7 80 c0 f8  	jalr	-116(ra)
804208d0: 00 00        	unimp	
804208d2: 08 61        	ld	a0, 0(a0)
804208d4: 17 03 00 00  	auipc	t1, 0
804208d8: 67 00 83 00  	jr	8(t1)
804208dc: 39 71        	addi	sp, sp, -64
804208de: 06 fc        	sd	ra, 56(sp)
804208e0: 22 f8        	sd	s0, 48(sp)
804208e2: 2e 88        	mv	a6, a1
804208e4: 13 56 45 00  	srli	a2, a0, 4
804208e8: 93 06 70 02  	li	a3, 39
804208ec: 13 07 10 27  	li	a4, 625
804208f0: 97 3e 00 00  	auipc	t4, 3
804208f4: 93 8e 2e ab  	addi	t4, t4, -1358
804208f8: 63 73 e6 02  	bgeu	a2, a4, 0x8042091e <.text+0x91e>
804208fc: 13 06 30 06  	li	a2, 99
80420900: 63 67 a6 0a  	bltu	a2, a0, 0x804209ae <.text+0x9ae>
80420904: a9 45        	li	a1, 10
80420906: 63 75 b5 0e  	bgeu	a0, a1, 0x804209f0 <.text+0x9f0>
8042090a: 13 86 f6 ff  	addi	a2, a3, -1
8042090e: 93 05 91 00  	addi	a1, sp, 9
80420912: b2 95        	add	a1, a1, a2
80420914: 1b 05 05 03  	addiw	a0, a0, 48
80420918: 23 80 a5 00  	sb	a0, 0(a1)
8042091c: cd a8        	j	0x80420a0e <.text+0xa0e>
8042091e: 81 46        	li	a3, 0
80420920: 17 36 00 00  	auipc	a2, 3
80420924: 13 06 86 72  	addi	a2, a2, 1832
80420928: 03 33 06 00  	ld	t1, 0(a2)
8042092c: 39 66        	lui	a2, 14
8042092e: 9b 03 06 8f  	addiw	t2, a2, -1808
80420932: 05 66        	lui	a2, 1
80420934: 1b 0e b6 47  	addiw	t3, a2, 1147
80420938: 93 08 c0 f9  	li	a7, -100
8042093c: 93 02 91 00  	addi	t0, sp, 9
80420940: 37 e7 f5 05  	lui	a4, 24414
80420944: 1b 0f f7 0f  	addiw	t5, a4, 255
80420948: aa 87        	mv	a5, a0
8042094a: 33 35 65 02  	mulhu	a0, a0, t1
8042094e: 2d 81        	srli	a0, a0, 11
80420950: 3b 06 75 02  	mulw	a2, a0, t2
80420954: 3d 9e        	addw	a2, a2, a5
80420956: 93 15 06 03  	slli	a1, a2, 48
8042095a: c9 91        	srli	a1, a1, 50
8042095c: b3 85 c5 03  	mul	a1, a1, t3
80420960: 13 d7 15 01  	srli	a4, a1, 17
80420964: c1 81        	srli	a1, a1, 16
80420966: 93 f5 e5 7f  	andi	a1, a1, 2046
8042096a: 3b 07 17 03  	mulw	a4, a4, a7
8042096e: 39 9e        	addw	a2, a2, a4
80420970: 46 16        	slli	a2, a2, 49
80420972: 41 92        	srli	a2, a2, 48
80420974: f6 95        	add	a1, a1, t4
80420976: 33 87 d2 00  	add	a4, t0, a3
8042097a: 83 cf 05 00  	lbu	t6, 0(a1)
8042097e: 83 85 15 00  	lb	a1, 1(a1)
80420982: 76 96        	add	a2, a2, t4
80420984: 03 04 16 00  	lb	s0, 1(a2)
80420988: 03 46 06 00  	lbu	a2, 0(a2)
8042098c: 23 02 b7 02  	sb	a1, 36(a4)
80420990: a3 01 f7 03  	sb	t6, 35(a4)
80420994: 23 03 87 02  	sb	s0, 38(a4)
80420998: a3 02 c7 02  	sb	a2, 37(a4)
8042099c: f1 16        	addi	a3, a3, -4
8042099e: e3 65 ff fa  	bltu	t5, a5, 0x80420948 <.text+0x948>
804209a2: 93 86 76 02  	addi	a3, a3, 39
804209a6: 13 06 30 06  	li	a2, 99
804209aa: e3 7d a6 f4  	bgeu	a2, a0, 0x80420904 <.text+0x904>
804209ae: 93 15 05 03  	slli	a1, a0, 48
804209b2: c9 91        	srli	a1, a1, 50
804209b4: 05 66        	lui	a2, 1
804209b6: 1b 06 b6 47  	addiw	a2, a2, 1147
804209ba: b3 85 c5 02  	mul	a1, a1, a2
804209be: c5 81        	srli	a1, a1, 17
804209c0: 13 06 c0 f9  	li	a2, -100
804209c4: 3b 86 c5 02  	mulw	a2, a1, a2
804209c8: 31 9d        	addw	a0, a0, a2
804209ca: 46 15        	slli	a0, a0, 49
804209cc: 41 91        	srli	a0, a0, 48
804209ce: f9 16        	addi	a3, a3, -2
804209d0: 76 95        	add	a0, a0, t4
804209d2: 03 06 15 00  	lb	a2, 1(a0)
804209d6: 03 45 05 00  	lbu	a0, 0(a0)
804209da: 13 07 91 00  	addi	a4, sp, 9
804209de: 36 97        	add	a4, a4, a3
804209e0: a3 00 c7 00  	sb	a2, 1(a4)
804209e4: 23 00 a7 00  	sb	a0, 0(a4)
804209e8: 2e 85        	mv	a0, a1
804209ea: a9 45        	li	a1, 10
804209ec: e3 6f b5 f0  	bltu	a0, a1, 0x8042090a <.text+0x90a>
804209f0: 06 05        	slli	a0, a0, 1
804209f2: 13 86 e6 ff  	addi	a2, a3, -2
804209f6: 76 95        	add	a0, a0, t4
804209f8: 83 05 15 00  	lb	a1, 1(a0)
804209fc: 03 45 05 00  	lbu	a0, 0(a0)
80420a00: 93 06 91 00  	addi	a3, sp, 9
80420a04: b2 96        	add	a3, a3, a2
80420a06: a3 80 b6 00  	sb	a1, 1(a3)
80420a0a: 23 80 a6 00  	sb	a0, 0(a3)
80420a0e: 13 05 91 00  	addi	a0, sp, 9
80420a12: b3 06 c5 00  	add	a3, a0, a2
80420a16: 13 05 70 02  	li	a0, 39
80420a1a: 33 07 c5 40  	sub	a4, a0, a2
80420a1e: 97 35 00 00  	auipc	a1, 3
80420a22: 93 85 a5 e3  	addi	a1, a1, -454
80420a26: 42 85        	mv	a0, a6
80420a28: 01 46        	li	a2, 0
80420a2a: 97 00 00 00  	auipc	ra, 0
80420a2e: e7 80 00 01  	jalr	16(ra)
80420a32: e2 70        	ld	ra, 56(sp)
80420a34: 42 74        	ld	s0, 48(sp)
80420a36: 21 61        	addi	sp, sp, 64
80420a38: 82 80        	ret
80420a3a: 59 71        	addi	sp, sp, -112
80420a3c: 86 f4        	sd	ra, 104(sp)
80420a3e: a2 f0        	sd	s0, 96(sp)
80420a40: a6 ec        	sd	s1, 88(sp)
80420a42: ca e8        	sd	s2, 80(sp)
80420a44: ce e4        	sd	s3, 72(sp)
80420a46: d2 e0        	sd	s4, 64(sp)
80420a48: 56 fc        	sd	s5, 56(sp)
80420a4a: 5a f8        	sd	s6, 48(sp)
80420a4c: 5e f4        	sd	s7, 40(sp)
80420a4e: 62 f0        	sd	s8, 32(sp)
80420a50: 66 ec        	sd	s9, 24(sp)
80420a52: 6a e8        	sd	s10, 16(sp)
80420a54: 6e e4        	sd	s11, 8(sp)
80420a56: aa 84        	mv	s1, a0
80420a58: 03 65 05 03  	lwu	a0, 48(a0)
80420a5c: ba 89        	mv	s3, a4
80420a5e: 36 89        	mv	s2, a3
80420a60: 32 8a        	mv	s4, a2
80420a62: ae 8b        	mv	s7, a1
80420a64: 93 75 15 00  	andi	a1, a0, 1
80420a68: b7 0a 11 00  	lui	s5, 272
80420a6c: 99 c1        	beqz	a1, 0x80420a72 <.text+0xa72>
80420a6e: 93 0a b0 02  	li	s5, 43
80420a72: 13 76 45 00  	andi	a2, a0, 4
80420a76: b3 8c 35 01  	add	s9, a1, s3
80420a7a: 09 e6        	bnez	a2, 0x80420a84 <.text+0xa84>
80420a7c: 81 4b        	li	s7, 0
80420a7e: 8c 60        	ld	a1, 0(s1)
80420a80: 85 e5        	bnez	a1, 0x80420aa8 <.text+0xaa8>
80420a82: 91 a8        	j	0x80420ad6 <.text+0xad6>
80420a84: 81 45        	li	a1, 0
80420a86: 63 0e 0a 00  	beqz	s4, 0x80420aa2 <.text+0xaa2>
80420a8a: 52 86        	mv	a2, s4
80420a8c: de 86        	mv	a3, s7
80420a8e: 03 87 06 00  	lb	a4, 0(a3)
80420a92: 85 06        	addi	a3, a3, 1
80420a94: 13 27 07 fc  	slti	a4, a4, -64
80420a98: 13 47 17 00  	xori	a4, a4, 1
80420a9c: 7d 16        	addi	a2, a2, -1
80420a9e: ba 95        	add	a1, a1, a4
80420aa0: 7d f6        	bnez	a2, 0x80420a8e <.text+0xa8e>
80420aa2: ae 9c        	add	s9, s9, a1
80420aa4: 8c 60        	ld	a1, 0(s1)
80420aa6: 85 c9        	beqz	a1, 0x80420ad6 <.text+0xad6>
80420aa8: 03 bd 84 00  	ld	s10, 8(s1)
80420aac: 63 f5 ac 03  	bgeu	s9, s10, 0x80420ad6 <.text+0xad6>
80420ab0: 21 89        	andi	a0, a0, 8
80420ab2: 51 e1        	bnez	a0, 0x80420b36 <.text+0xb36>
80420ab4: 83 c5 84 03  	lbu	a1, 56(s1)
80420ab8: 0d 46        	li	a2, 3
80420aba: 05 45        	li	a0, 1
80420abc: 63 83 c5 00  	beq	a1, a2, 0x80420ac2 <.text+0xac2>
80420ac0: 2e 85        	mv	a0, a1
80420ac2: 93 75 35 00  	andi	a1, a0, 3
80420ac6: 33 05 9d 41  	sub	a0, s10, s9
80420aca: cd cd        	beqz	a1, 0x80420b84 <.text+0xb84>
80420acc: 05 46        	li	a2, 1
80420ace: 63 9e c5 0a  	bne	a1, a2, 0x80420b8a <.text+0xb8a>
80420ad2: 81 4c        	li	s9, 0
80420ad4: c1 a0        	j	0x80420b94 <.text+0xb94>
80420ad6: 80 70        	ld	s0, 32(s1)
80420ad8: 84 74        	ld	s1, 40(s1)
80420ada: 22 85        	mv	a0, s0
80420adc: a6 85        	mv	a1, s1
80420ade: 56 86        	mv	a2, s5
80420ae0: de 86        	mv	a3, s7
80420ae2: 52 87        	mv	a4, s4
80420ae4: 97 00 00 00  	auipc	ra, 0
80420ae8: e7 80 e0 13  	jalr	318(ra)
80420aec: 05 4b        	li	s6, 1
80420aee: 0d c1        	beqz	a0, 0x80420b10 <.text+0xb10>
80420af0: 5a 85        	mv	a0, s6
80420af2: a6 70        	ld	ra, 104(sp)
80420af4: 06 74        	ld	s0, 96(sp)
80420af6: e6 64        	ld	s1, 88(sp)
80420af8: 46 69        	ld	s2, 80(sp)
80420afa: a6 69        	ld	s3, 72(sp)
80420afc: 06 6a        	ld	s4, 64(sp)
80420afe: e2 7a        	ld	s5, 56(sp)
80420b00: 42 7b        	ld	s6, 48(sp)
80420b02: a2 7b        	ld	s7, 40(sp)
80420b04: 02 7c        	ld	s8, 32(sp)
80420b06: e2 6c        	ld	s9, 24(sp)
80420b08: 42 6d        	ld	s10, 16(sp)
80420b0a: a2 6d        	ld	s11, 8(sp)
80420b0c: 65 61        	addi	sp, sp, 112
80420b0e: 82 80        	ret
80420b10: 9c 6c        	ld	a5, 24(s1)
80420b12: 22 85        	mv	a0, s0
80420b14: ca 85        	mv	a1, s2
80420b16: 4e 86        	mv	a2, s3
80420b18: a6 70        	ld	ra, 104(sp)
80420b1a: 06 74        	ld	s0, 96(sp)
80420b1c: e6 64        	ld	s1, 88(sp)
80420b1e: 46 69        	ld	s2, 80(sp)
80420b20: a6 69        	ld	s3, 72(sp)
80420b22: 06 6a        	ld	s4, 64(sp)
80420b24: e2 7a        	ld	s5, 56(sp)
80420b26: 42 7b        	ld	s6, 48(sp)
80420b28: a2 7b        	ld	s7, 40(sp)
80420b2a: 02 7c        	ld	s8, 32(sp)
80420b2c: e2 6c        	ld	s9, 24(sp)
80420b2e: 42 6d        	ld	s10, 16(sp)
80420b30: a2 6d        	ld	s11, 8(sp)
80420b32: 65 61        	addi	sp, sp, 112
80420b34: 82 87        	jr	a5
80420b36: c0 58        	lw	s0, 52(s1)
80420b38: 13 05 00 03  	li	a0, 48
80420b3c: 83 c5 84 03  	lbu	a1, 56(s1)
80420b40: 2e e0        	sd	a1, 0(sp)
80420b42: 03 bc 04 02  	ld	s8, 32(s1)
80420b46: 83 bd 84 02  	ld	s11, 40(s1)
80420b4a: c8 d8        	sw	a0, 52(s1)
80420b4c: 05 4b        	li	s6, 1
80420b4e: 23 8c 64 03  	sb	s6, 56(s1)
80420b52: 62 85        	mv	a0, s8
80420b54: ee 85        	mv	a1, s11
80420b56: 56 86        	mv	a2, s5
80420b58: de 86        	mv	a3, s7
80420b5a: 52 87        	mv	a4, s4
80420b5c: 97 00 00 00  	auipc	ra, 0
80420b60: e7 80 60 0c  	jalr	198(ra)
80420b64: 51 f5        	bnez	a0, 0x80420af0 <.text+0xaf0>
80420b66: 22 8a        	mv	s4, s0
80420b68: 33 05 9d 41  	sub	a0, s10, s9
80420b6c: 13 04 15 00  	addi	s0, a0, 1
80420b70: 7d 14        	addi	s0, s0, -1
80420b72: 49 c4        	beqz	s0, 0x80420bfc <.text+0xbfc>
80420b74: 03 b6 0d 02  	ld	a2, 32(s11)
80420b78: 93 05 00 03  	li	a1, 48
80420b7c: 62 85        	mv	a0, s8
80420b7e: 02 96        	jalr	a2
80420b80: 65 d9        	beqz	a0, 0x80420b70 <.text+0xb70>
80420b82: bd b7        	j	0x80420af0 <.text+0xaf0>
80420b84: aa 8c        	mv	s9, a0
80420b86: 2e 85        	mv	a0, a1
80420b88: 31 a0        	j	0x80420b94 <.text+0xb94>
80420b8a: 93 05 15 00  	addi	a1, a0, 1
80420b8e: 05 81        	srli	a0, a0, 1
80420b90: 93 dc 15 00  	srli	s9, a1, 1
80420b94: 03 bc 04 02  	ld	s8, 32(s1)
80420b98: 03 bd 84 02  	ld	s10, 40(s1)
80420b9c: c4 58        	lw	s1, 52(s1)
80420b9e: 13 04 15 00  	addi	s0, a0, 1
80420ba2: 7d 14        	addi	s0, s0, -1
80420ba4: 09 c8        	beqz	s0, 0x80420bb6 <.text+0xbb6>
80420ba6: 03 36 0d 02  	ld	a2, 32(s10)
80420baa: 62 85        	mv	a0, s8
80420bac: a6 85        	mv	a1, s1
80420bae: 02 96        	jalr	a2
80420bb0: 6d d9        	beqz	a0, 0x80420ba2 <.text+0xba2>
80420bb2: 05 4b        	li	s6, 1
80420bb4: 35 bf        	j	0x80420af0 <.text+0xaf0>
80420bb6: 37 05 11 00  	lui	a0, 272
80420bba: 05 4b        	li	s6, 1
80420bbc: e3 8a a4 f2  	beq	s1, a0, 0x80420af0 <.text+0xaf0>
80420bc0: 62 85        	mv	a0, s8
80420bc2: ea 85        	mv	a1, s10
80420bc4: 56 86        	mv	a2, s5
80420bc6: de 86        	mv	a3, s7
80420bc8: 52 87        	mv	a4, s4
80420bca: 97 00 00 00  	auipc	ra, 0
80420bce: e7 80 80 05  	jalr	88(ra)
80420bd2: 19 fd        	bnez	a0, 0x80420af0 <.text+0xaf0>
80420bd4: 83 36 8d 01  	ld	a3, 24(s10)
80420bd8: 62 85        	mv	a0, s8
80420bda: ca 85        	mv	a1, s2
80420bdc: 4e 86        	mv	a2, s3
80420bde: 82 96        	jalr	a3
80420be0: 01 f9        	bnez	a0, 0x80420af0 <.text+0xaf0>
80420be2: 01 44        	li	s0, 0
80420be4: 63 8b 8c 02  	beq	s9, s0, 0x80420c1a <.text+0xc1a>
80420be8: 03 36 0d 02  	ld	a2, 32(s10)
80420bec: 05 04        	addi	s0, s0, 1
80420bee: 62 85        	mv	a0, s8
80420bf0: a6 85        	mv	a1, s1
80420bf2: 02 96        	jalr	a2
80420bf4: 65 d9        	beqz	a0, 0x80420be4 <.text+0xbe4>
80420bf6: 13 05 f4 ff  	addi	a0, s0, -1
80420bfa: 0d a0        	j	0x80420c1c <.text+0xc1c>
80420bfc: 83 b6 8d 01  	ld	a3, 24(s11)
80420c00: 62 85        	mv	a0, s8
80420c02: ca 85        	mv	a1, s2
80420c04: 4e 86        	mv	a2, s3
80420c06: 82 96        	jalr	a3
80420c08: e3 14 05 ee  	bnez	a0, 0x80420af0 <.text+0xaf0>
80420c0c: 01 4b        	li	s6, 0
80420c0e: 23 aa 44 03  	sw	s4, 52(s1)
80420c12: 02 65        	ld	a0, 0(sp)
80420c14: 23 8c a4 02  	sb	a0, 56(s1)
80420c18: e1 bd        	j	0x80420af0 <.text+0xaf0>
80420c1a: 66 85        	mv	a0, s9
80420c1c: 33 3b 95 01  	sltu	s6, a0, s9
80420c20: c1 bd        	j	0x80420af0 <.text+0xaf0>
80420c22: 79 71        	addi	sp, sp, -48
80420c24: 06 f4        	sd	ra, 40(sp)
80420c26: 22 f0        	sd	s0, 32(sp)
80420c28: 26 ec        	sd	s1, 24(sp)
80420c2a: 4a e8        	sd	s2, 16(sp)
80420c2c: 4e e4        	sd	s3, 8(sp)
80420c2e: 9b 07 06 00  	sext.w	a5, a2
80420c32: 37 08 11 00  	lui	a6, 272
80420c36: 3a 89        	mv	s2, a4
80420c38: b6 84        	mv	s1, a3
80420c3a: 2e 84        	mv	s0, a1
80420c3c: aa 89        	mv	s3, a0
80420c3e: 63 89 07 01  	beq	a5, a6, 0x80420c50 <.text+0xc50>
80420c42: 14 70        	ld	a3, 32(s0)
80420c44: 4e 85        	mv	a0, s3
80420c46: b2 85        	mv	a1, a2
80420c48: 82 96        	jalr	a3
80420c4a: aa 85        	mv	a1, a0
80420c4c: 05 45        	li	a0, 1
80420c4e: 91 ed        	bnez	a1, 0x80420c6a <.text+0xc6a>
80420c50: 81 cc        	beqz	s1, 0x80420c68 <.text+0xc68>
80420c52: 1c 6c        	ld	a5, 24(s0)
80420c54: 4e 85        	mv	a0, s3
80420c56: a6 85        	mv	a1, s1
80420c58: 4a 86        	mv	a2, s2
80420c5a: a2 70        	ld	ra, 40(sp)
80420c5c: 02 74        	ld	s0, 32(sp)
80420c5e: e2 64        	ld	s1, 24(sp)
80420c60: 42 69        	ld	s2, 16(sp)
80420c62: a2 69        	ld	s3, 8(sp)
80420c64: 45 61        	addi	sp, sp, 48
80420c66: 82 87        	jr	a5
80420c68: 01 45        	li	a0, 0
80420c6a: a2 70        	ld	ra, 40(sp)
80420c6c: 02 74        	ld	s0, 32(sp)
80420c6e: e2 64        	ld	s1, 24(sp)
80420c70: 42 69        	ld	s2, 16(sp)
80420c72: a2 69        	ld	s3, 8(sp)
80420c74: 45 61        	addi	sp, sp, 48
80420c76: 82 80        	ret
80420c78: 41 11        	addi	sp, sp, -16
80420c7a: 06 e4        	sd	ra, 8(sp)
80420c7c: 97 00 00 00  	auipc	ra, 0
80420c80: e7 80 a0 00  	jalr	10(ra)
80420c84: 00 00        	unimp	
80420c86: 59 71        	addi	sp, sp, -112
80420c88: 86 f4        	sd	ra, 104(sp)
80420c8a: 2a e4        	sd	a0, 8(sp)
80420c8c: 2e e8        	sd	a1, 16(sp)
80420c8e: 28 00        	addi	a0, sp, 8
80420c90: aa e4        	sd	a0, 72(sp)
80420c92: 17 05 00 00  	auipc	a0, 0
80420c96: 13 05 05 c4  	addi	a0, a0, -960
80420c9a: aa e8        	sd	a0, 80(sp)
80420c9c: 0c 08        	addi	a1, sp, 16
80420c9e: ae ec        	sd	a1, 88(sp)
80420ca0: aa f0        	sd	a0, 96(sp)
80420ca2: 17 35 00 00  	auipc	a0, 3
80420ca6: 13 05 e5 84  	addi	a0, a0, -1970
80420caa: 2a ec        	sd	a0, 24(sp)
80420cac: 09 45        	li	a0, 2
80420cae: 2a f0        	sd	a0, 32(sp)
80420cb0: 02 f4        	sd	zero, 40(sp)
80420cb2: ac 00        	addi	a1, sp, 72
80420cb4: 2e fc        	sd	a1, 56(sp)
80420cb6: aa e0        	sd	a0, 64(sp)
80420cb8: 28 08        	addi	a0, sp, 24
80420cba: b2 85        	mv	a1, a2
80420cbc: 97 00 00 00  	auipc	ra, 0
80420cc0: e7 80 80 b9  	jalr	-1128(ra)
80420cc4: 00 00        	unimp	
80420cc6: 41 11        	addi	sp, sp, -16
80420cc8: 06 e4        	sd	ra, 8(sp)
80420cca: 97 00 00 00  	auipc	ra, 0
80420cce: e7 80 a0 00  	jalr	10(ra)
80420cd2: 00 00        	unimp	
80420cd4: 59 71        	addi	sp, sp, -112
80420cd6: 86 f4        	sd	ra, 104(sp)
80420cd8: 2a e4        	sd	a0, 8(sp)
80420cda: 2e e8        	sd	a1, 16(sp)
80420cdc: 28 00        	addi	a0, sp, 8
80420cde: aa e4        	sd	a0, 72(sp)
80420ce0: 17 05 00 00  	auipc	a0, 0
80420ce4: 13 05 25 bf  	addi	a0, a0, -1038
80420ce8: aa e8        	sd	a0, 80(sp)
80420cea: 0c 08        	addi	a1, sp, 16
80420cec: ae ec        	sd	a1, 88(sp)
80420cee: aa f0        	sd	a0, 96(sp)
80420cf0: 17 35 00 00  	auipc	a0, 3
80420cf4: 13 05 05 83  	addi	a0, a0, -2000
80420cf8: 2a ec        	sd	a0, 24(sp)
80420cfa: 09 45        	li	a0, 2
80420cfc: 2a f0        	sd	a0, 32(sp)
80420cfe: 02 f4        	sd	zero, 40(sp)
80420d00: ac 00        	addi	a1, sp, 72
80420d02: 2e fc        	sd	a1, 56(sp)
80420d04: aa e0        	sd	a0, 64(sp)
80420d06: 97 35 00 00  	auipc	a1, 3
80420d0a: 93 85 25 d3  	addi	a1, a1, -718
80420d0e: 28 08        	addi	a0, sp, 24
80420d10: 97 00 00 00  	auipc	ra, 0
80420d14: e7 80 40 b4  	jalr	-1212(ra)
80420d18: 00 00        	unimp	
80420d1a: 5d 71        	addi	sp, sp, -80
80420d1c: 86 e4        	sd	ra, 72(sp)
80420d1e: a2 e0        	sd	s0, 64(sp)
80420d20: 26 fc        	sd	s1, 56(sp)
80420d22: 4a f8        	sd	s2, 48(sp)
80420d24: 4e f4        	sd	s3, 40(sp)
80420d26: 52 f0        	sd	s4, 32(sp)
80420d28: 56 ec        	sd	s5, 24(sp)
80420d2a: 5a e8        	sd	s6, 16(sp)
80420d2c: 5e e4        	sd	s7, 8(sp)
80420d2e: 83 32 05 00  	ld	t0, 0(a0)
80420d32: 14 69        	ld	a3, 16(a0)
80420d34: 13 87 f2 ff  	addi	a4, t0, -1
80420d38: 33 37 e0 00  	snez	a4, a4
80420d3c: 93 87 f6 ff  	addi	a5, a3, -1
80420d40: b3 37 f0 00  	snez	a5, a5
80420d44: 7d 8f        	and	a4, a4, a5
80420d46: 32 89        	mv	s2, a2
80420d48: ae 89        	mv	s3, a1
80420d4a: 63 17 07 1a  	bnez	a4, 0x80420ef8 <.text+0xef8>
80420d4e: 85 45        	li	a1, 1
80420d50: 63 9b b6 10  	bne	a3, a1, 0x80420e66 <.text+0xe66>
80420d54: 10 6d        	ld	a2, 24(a0)
80420d56: 81 45        	li	a1, 0
80420d58: 33 8e 29 01  	add	t3, s3, s2
80420d5c: 93 07 16 00  	addi	a5, a2, 1
80420d60: 37 03 11 00  	lui	t1, 272
80420d64: 93 08 f0 0d  	li	a7, 223
80420d68: 13 08 00 0f  	li	a6, 240
80420d6c: 4e 86        	mv	a2, s3
80420d6e: 01 a8        	j	0x80420d7e <.text+0xd7e>
80420d70: 93 06 16 00  	addi	a3, a2, 1
80420d74: 91 8d        	sub	a1, a1, a2
80420d76: b6 95        	add	a1, a1, a3
80420d78: 36 86        	mv	a2, a3
80420d7a: 63 06 64 0e  	beq	s0, t1, 0x80420e66 <.text+0xe66>
80420d7e: fd 17        	addi	a5, a5, -1
80420d80: a5 cb        	beqz	a5, 0x80420df0 <.text+0xdf0>
80420d82: 63 02 c6 0f  	beq	a2, t3, 0x80420e66 <.text+0xe66>
80420d86: 83 06 06 00  	lb	a3, 0(a2)
80420d8a: 13 f4 f6 0f  	andi	s0, a3, 255
80420d8e: e3 d1 06 fe  	bgez	a3, 0x80420d70 <.text+0xd70>
80420d92: 83 46 16 00  	lbu	a3, 1(a2)
80420d96: 93 74 f4 01  	andi	s1, s0, 31
80420d9a: 13 f7 f6 03  	andi	a4, a3, 63
80420d9e: 63 fc 88 02  	bgeu	a7, s0, 0x80420dd6 <.text+0xdd6>
80420da2: 83 46 26 00  	lbu	a3, 2(a2)
80420da6: 1a 07        	slli	a4, a4, 6
80420da8: 93 f6 f6 03  	andi	a3, a3, 63
80420dac: b3 63 d7 00  	or	t2, a4, a3
80420db0: 63 69 04 03  	bltu	s0, a6, 0x80420de2 <.text+0xde2>
80420db4: 83 46 36 00  	lbu	a3, 3(a2)
80420db8: 13 97 d4 03  	slli	a4, s1, 61
80420dbc: 2d 93        	srli	a4, a4, 43
80420dbe: 93 94 63 00  	slli	s1, t2, 6
80420dc2: 93 f6 f6 03  	andi	a3, a3, 63
80420dc6: c5 8e        	or	a3, a3, s1
80420dc8: 33 e4 e6 00  	or	s0, a3, a4
80420dcc: 63 0d 64 08  	beq	s0, t1, 0x80420e66 <.text+0xe66>
80420dd0: 93 06 46 00  	addi	a3, a2, 4
80420dd4: 45 b7        	j	0x80420d74 <.text+0xd74>
80420dd6: 93 06 26 00  	addi	a3, a2, 2
80420dda: 9a 04        	slli	s1, s1, 6
80420ddc: 33 e4 e4 00  	or	s0, s1, a4
80420de0: 51 bf        	j	0x80420d74 <.text+0xd74>
80420de2: 93 06 36 00  	addi	a3, a2, 3
80420de6: 13 97 c4 00  	slli	a4, s1, 12
80420dea: 33 e4 e3 00  	or	s0, t2, a4
80420dee: 59 b7        	j	0x80420d74 <.text+0xd74>
80420df0: 63 0b c6 07  	beq	a2, t3, 0x80420e66 <.text+0xe66>
80420df4: 83 06 06 00  	lb	a3, 0(a2)
80420df8: 63 d3 06 04  	bgez	a3, 0x80420e3e <.text+0xe3e>
80420dfc: 93 f6 f6 0f  	andi	a3, a3, 255
80420e00: 13 07 00 0e  	li	a4, 224
80420e04: 63 ed e6 02  	bltu	a3, a4, 0x80420e3e <.text+0xe3e>
80420e08: 13 07 00 0f  	li	a4, 240
80420e0c: 63 e9 e6 02  	bltu	a3, a4, 0x80420e3e <.text+0xe3e>
80420e10: 03 47 16 00  	lbu	a4, 1(a2)
80420e14: 83 47 26 00  	lbu	a5, 2(a2)
80420e18: 13 77 f7 03  	andi	a4, a4, 63
80420e1c: 93 f7 f7 03  	andi	a5, a5, 63
80420e20: 03 46 36 00  	lbu	a2, 3(a2)
80420e24: f6 16        	slli	a3, a3, 61
80420e26: ad 92        	srli	a3, a3, 43
80420e28: 32 07        	slli	a4, a4, 12
80420e2a: 9a 07        	slli	a5, a5, 6
80420e2c: 5d 8f        	or	a4, a4, a5
80420e2e: 13 76 f6 03  	andi	a2, a2, 63
80420e32: 59 8e        	or	a2, a2, a4
80420e34: 55 8e        	or	a2, a2, a3
80420e36: b7 06 11 00  	lui	a3, 272
80420e3a: 63 06 d6 02  	beq	a2, a3, 0x80420e66 <.text+0xe66>
80420e3e: 85 c1        	beqz	a1, 0x80420e5e <.text+0xe5e>
80420e40: 63 fd 25 01  	bgeu	a1, s2, 0x80420e5a <.text+0xe5a>
80420e44: 33 86 b9 00  	add	a2, s3, a1
80420e48: 03 06 06 00  	lb	a2, 0(a2)
80420e4c: 93 06 00 fc  	li	a3, -64
80420e50: 63 57 d6 00  	bge	a2, a3, 0x80420e5e <.text+0xe5e>
80420e54: 01 46        	li	a2, 0
80420e56: 11 e6        	bnez	a2, 0x80420e62 <.text+0xe62>
80420e58: 39 a0        	j	0x80420e66 <.text+0xe66>
80420e5a: e3 9d 25 ff  	bne	a1, s2, 0x80420e54 <.text+0xe54>
80420e5e: 4e 86        	mv	a2, s3
80420e60: 19 c2        	beqz	a2, 0x80420e66 <.text+0xe66>
80420e62: 2e 89        	mv	s2, a1
80420e64: b2 89        	mv	s3, a2
80420e66: 63 89 02 08  	beqz	t0, 0x80420ef8 <.text+0xef8>
80420e6a: 03 38 85 00  	ld	a6, 8(a0)
80420e6e: 93 05 00 02  	li	a1, 32
80420e72: 63 72 b9 02  	bgeu	s2, a1, 0x80420e96 <.text+0xe96>
80420e76: 01 46        	li	a2, 0
80420e78: 63 0e 09 04  	beqz	s2, 0x80420ed4 <.text+0xed4>
80420e7c: ca 85        	mv	a1, s2
80420e7e: ce 86        	mv	a3, s3
80420e80: 03 87 06 00  	lb	a4, 0(a3)
80420e84: 85 06        	addi	a3, a3, 1
80420e86: 13 27 07 fc  	slti	a4, a4, -64
80420e8a: 13 47 17 00  	xori	a4, a4, 1
80420e8e: fd 15        	addi	a1, a1, -1
80420e90: 3a 96        	add	a2, a2, a4
80420e92: fd f5        	bnez	a1, 0x80420e80 <.text+0xe80>
80420e94: 81 a0        	j	0x80420ed4 <.text+0xed4>
80420e96: 93 85 79 00  	addi	a1, s3, 7
80420e9a: 93 f7 85 ff  	andi	a5, a1, -8
80420e9e: 33 87 37 41  	sub	a4, a5, s3
80420ea2: 63 6c e9 00  	bltu	s2, a4, 0x80420eba <.text+0xeba>
80420ea6: b3 05 e9 40  	sub	a1, s2, a4
80420eaa: 13 b6 85 00  	sltiu	a2, a1, 8
80420eae: 93 36 97 00  	sltiu	a3, a4, 9
80420eb2: 93 c6 16 00  	xori	a3, a3, 1
80420eb6: 55 8e        	or	a2, a2, a3
80420eb8: 79 c2        	beqz	a2, 0x80420f7e <.text+0xf7e>
80420eba: 01 46        	li	a2, 0
80420ebc: ca 85        	mv	a1, s2
80420ebe: ce 86        	mv	a3, s3
80420ec0: 03 87 06 00  	lb	a4, 0(a3)
80420ec4: 85 06        	addi	a3, a3, 1
80420ec6: 13 27 07 fc  	slti	a4, a4, -64
80420eca: 13 47 17 00  	xori	a4, a4, 1
80420ece: fd 15        	addi	a1, a1, -1
80420ed0: 3a 96        	add	a2, a2, a4
80420ed2: fd f5        	bnez	a1, 0x80420ec0 <.text+0xec0>
80420ed4: 63 72 06 03  	bgeu	a2, a6, 0x80420ef8 <.text+0xef8>
80420ed8: 83 45 85 03  	lbu	a1, 56(a0)
80420edc: 0d 47        	li	a4, 3
80420ede: 81 46        	li	a3, 0
80420ee0: 63 83 e5 00  	beq	a1, a4, 0x80420ee6 <.text+0xee6>
80420ee4: ae 86        	mv	a3, a1
80420ee6: 8d 8a        	andi	a3, a3, 3
80420ee8: b3 05 c8 40  	sub	a1, a6, a2
80420eec: 95 c6        	beqz	a3, 0x80420f18 <.text+0xf18>
80420eee: 05 46        	li	a2, 1
80420ef0: 63 97 c6 02  	bne	a3, a2, 0x80420f1e <.text+0xf1e>
80420ef4: 81 4a        	li	s5, 0
80420ef6: 0d a8        	j	0x80420f28 <.text+0xf28>
80420ef8: 0c 75        	ld	a1, 40(a0)
80420efa: 08 71        	ld	a0, 32(a0)
80420efc: 9c 6d        	ld	a5, 24(a1)
80420efe: ce 85        	mv	a1, s3
80420f00: 4a 86        	mv	a2, s2
80420f02: a6 60        	ld	ra, 72(sp)
80420f04: 06 64        	ld	s0, 64(sp)
80420f06: e2 74        	ld	s1, 56(sp)
80420f08: 42 79        	ld	s2, 48(sp)
80420f0a: a2 79        	ld	s3, 40(sp)
80420f0c: 02 7a        	ld	s4, 32(sp)
80420f0e: e2 6a        	ld	s5, 24(sp)
80420f10: 42 6b        	ld	s6, 16(sp)
80420f12: a2 6b        	ld	s7, 8(sp)
80420f14: 61 61        	addi	sp, sp, 80
80420f16: 82 87        	jr	a5
80420f18: ae 8a        	mv	s5, a1
80420f1a: b6 85        	mv	a1, a3
80420f1c: 31 a0        	j	0x80420f28 <.text+0xf28>
80420f1e: 13 86 15 00  	addi	a2, a1, 1
80420f22: 85 81        	srli	a1, a1, 1
80420f24: 93 5a 16 00  	srli	s5, a2, 1
80420f28: 03 3b 05 02  	ld	s6, 32(a0)
80420f2c: 83 3b 85 02  	ld	s7, 40(a0)
80420f30: 44 59        	lw	s1, 52(a0)
80420f32: 13 84 15 00  	addi	s0, a1, 1
80420f36: 7d 14        	addi	s0, s0, -1
80420f38: 09 c8        	beqz	s0, 0x80420f4a <.text+0xf4a>
80420f3a: 03 b6 0b 02  	ld	a2, 32(s7)
80420f3e: 5a 85        	mv	a0, s6
80420f40: a6 85        	mv	a1, s1
80420f42: 02 96        	jalr	a2
80420f44: 6d d9        	beqz	a0, 0x80420f36 <.text+0xf36>
80420f46: 05 4a        	li	s4, 1
80420f48: bd aa        	j	0x804210c6 <.text+0x10c6>
80420f4a: 37 05 11 00  	lui	a0, 272
80420f4e: 05 4a        	li	s4, 1
80420f50: 63 8b a4 16  	beq	s1, a0, 0x804210c6 <.text+0x10c6>
80420f54: 83 b6 8b 01  	ld	a3, 24(s7)
80420f58: 5a 85        	mv	a0, s6
80420f5a: ce 85        	mv	a1, s3
80420f5c: 4a 86        	mv	a2, s2
80420f5e: 82 96        	jalr	a3
80420f60: 63 13 05 16  	bnez	a0, 0x804210c6 <.text+0x10c6>
80420f64: 01 44        	li	s0, 0
80420f66: 63 8d 8a 14  	beq	s5, s0, 0x804210c0 <.text+0x10c0>
80420f6a: 03 b6 0b 02  	ld	a2, 32(s7)
80420f6e: 05 04        	addi	s0, s0, 1
80420f70: 5a 85        	mv	a0, s6
80420f72: a6 85        	mv	a1, s1
80420f74: 02 96        	jalr	a2
80420f76: 65 d9        	beqz	a0, 0x80420f66 <.text+0xf66>
80420f78: 13 05 f4 ff  	addi	a0, s0, -1
80420f7c: 99 a2        	j	0x804210c2 <.text+0x10c2>
80420f7e: 93 f6 75 00  	andi	a3, a1, 7
80420f82: 01 46        	li	a2, 0
80420f84: 63 8f 37 01  	beq	a5, s3, 0x80420fa2 <.text+0xfa2>
80420f88: b3 87 f9 40  	sub	a5, s3, a5
80420f8c: ce 84        	mv	s1, s3
80420f8e: 03 84 04 00  	lb	s0, 0(s1)
80420f92: 85 04        	addi	s1, s1, 1
80420f94: 13 24 04 fc  	slti	s0, s0, -64
80420f98: 13 44 14 00  	xori	s0, s0, 1
80420f9c: 85 07        	addi	a5, a5, 1
80420f9e: 22 96        	add	a2, a2, s0
80420fa0: fd f7        	bnez	a5, 0x80420f8e <.text+0xf8e>
80420fa2: 4e 97        	add	a4, a4, s3
80420fa4: 81 44        	li	s1, 0
80420fa6: 91 ce        	beqz	a3, 0x80420fc2 <.text+0xfc2>
80420fa8: 93 f7 85 ff  	andi	a5, a1, -8
80420fac: ba 97        	add	a5, a5, a4
80420fae: 03 84 07 00  	lb	s0, 0(a5)
80420fb2: 85 07        	addi	a5, a5, 1
80420fb4: 13 24 04 fc  	slti	s0, s0, -64
80420fb8: 13 44 14 00  	xori	s0, s0, 1
80420fbc: fd 16        	addi	a3, a3, -1
80420fbe: a2 94        	add	s1, s1, s0
80420fc0: fd f6        	bnez	a3, 0x80420fae <.text+0xfae>
80420fc2: 93 d6 35 00  	srli	a3, a1, 3
80420fc6: 97 35 00 00  	auipc	a1, 3
80420fca: 93 85 a5 08  	addi	a1, a1, 138
80420fce: 9c 61        	ld	a5, 0(a1)
80420fd0: 97 35 00 00  	auipc	a1, 3
80420fd4: 93 85 85 08  	addi	a1, a1, 136
80420fd8: 83 b2 05 00  	ld	t0, 0(a1)
80420fdc: b7 15 00 10  	lui	a1, 65537
80420fe0: 92 05        	slli	a1, a1, 4
80420fe2: 85 05        	addi	a1, a1, 1
80420fe4: c2 05        	slli	a1, a1, 16
80420fe6: 93 88 15 00  	addi	a7, a1, 1
80420fea: 26 96        	add	a2, a2, s1
80420fec: 25 a0        	j	0x80421014 <.text+0x1014>
80420fee: 93 16 3e 00  	slli	a3, t3, 3
80420ff2: 33 07 d3 00  	add	a4, t1, a3
80420ff6: b3 86 c3 41  	sub	a3, t2, t3
80420ffa: 93 74 3e 00  	andi	s1, t3, 3
80420ffe: 33 f4 55 00  	and	s0, a1, t0
80421002: a1 81        	srli	a1, a1, 8
80421004: b3 f5 55 00  	and	a1, a1, t0
80421008: a2 95        	add	a1, a1, s0
8042100a: b3 85 15 03  	mul	a1, a1, a7
8042100e: c1 91        	srli	a1, a1, 48
80421010: 2e 96        	add	a2, a2, a1
80421012: b5 ec        	bnez	s1, 0x8042108e <.text+0x108e>
80421014: e3 80 06 ec  	beqz	a3, 0x80420ed4 <.text+0xed4>
80421018: b6 83        	mv	t2, a3
8042101a: 3a 83        	mv	t1, a4
8042101c: 93 05 00 0c  	li	a1, 192
80421020: 36 8e        	mv	t3, a3
80421022: 63 e4 b6 00  	bltu	a3, a1, 0x8042102a <.text+0x102a>
80421026: 13 0e 00 0c  	li	t3, 192
8042102a: 93 75 ce 0f  	andi	a1, t3, 252
8042102e: 93 96 35 00  	slli	a3, a1, 3
80421032: b3 0e d3 00  	add	t4, t1, a3
80421036: c5 dd        	beqz	a1, 0x80420fee <.text+0xfee>
80421038: 81 45        	li	a1, 0
8042103a: 1a 87        	mv	a4, t1
8042103c: 4d db        	beqz	a4, 0x80420fee <.text+0xfee>
8042103e: 14 63        	ld	a3, 0(a4)
80421040: 93 c4 f6 ff  	not	s1, a3
80421044: 9d 80        	srli	s1, s1, 7
80421046: 99 82        	srli	a3, a3, 6
80421048: 00 67        	ld	s0, 8(a4)
8042104a: c5 8e        	or	a3, a3, s1
8042104c: fd 8e        	and	a3, a3, a5
8042104e: b6 95        	add	a1, a1, a3
80421050: 93 46 f4 ff  	not	a3, s0
80421054: 9d 82        	srli	a3, a3, 7
80421056: 93 54 64 00  	srli	s1, s0, 6
8042105a: 00 6b        	ld	s0, 16(a4)
8042105c: c5 8e        	or	a3, a3, s1
8042105e: fd 8e        	and	a3, a3, a5
80421060: b6 95        	add	a1, a1, a3
80421062: 93 46 f4 ff  	not	a3, s0
80421066: 9d 82        	srli	a3, a3, 7
80421068: 93 54 64 00  	srli	s1, s0, 6
8042106c: 00 6f        	ld	s0, 24(a4)
8042106e: c5 8e        	or	a3, a3, s1
80421070: fd 8e        	and	a3, a3, a5
80421072: b6 95        	add	a1, a1, a3
80421074: 93 46 f4 ff  	not	a3, s0
80421078: 9d 82        	srli	a3, a3, 7
8042107a: 93 54 64 00  	srli	s1, s0, 6
8042107e: c5 8e        	or	a3, a3, s1
80421080: fd 8e        	and	a3, a3, a5
80421082: 13 07 07 02  	addi	a4, a4, 32
80421086: b6 95        	add	a1, a1, a3
80421088: e3 1a d7 fb  	bne	a4, t4, 0x8042103c <.text+0x103c>
8042108c: 8d b7        	j	0x80420fee <.text+0xfee>
8042108e: 63 08 03 04  	beqz	t1, 0x804210de <.text+0x10de>
80421092: 93 05 00 0c  	li	a1, 192
80421096: 63 e4 b3 00  	bltu	t2, a1, 0x8042109e <.text+0x109e>
8042109a: 93 03 00 0c  	li	t2, 192
8042109e: 81 45        	li	a1, 0
804210a0: 93 f6 33 00  	andi	a3, t2, 3
804210a4: 8e 06        	slli	a3, a3, 3
804210a6: 03 b7 0e 00  	ld	a4, 0(t4)
804210aa: a1 0e        	addi	t4, t4, 8
804210ac: 93 44 f7 ff  	not	s1, a4
804210b0: 9d 80        	srli	s1, s1, 7
804210b2: 19 83        	srli	a4, a4, 6
804210b4: 45 8f        	or	a4, a4, s1
804210b6: 7d 8f        	and	a4, a4, a5
804210b8: e1 16        	addi	a3, a3, -8
804210ba: ba 95        	add	a1, a1, a4
804210bc: ed f6        	bnez	a3, 0x804210a6 <.text+0x10a6>
804210be: 0d a0        	j	0x804210e0 <.text+0x10e0>
804210c0: 56 85        	mv	a0, s5
804210c2: 33 3a 55 01  	sltu	s4, a0, s5
804210c6: 52 85        	mv	a0, s4
804210c8: a6 60        	ld	ra, 72(sp)
804210ca: 06 64        	ld	s0, 64(sp)
804210cc: e2 74        	ld	s1, 56(sp)
804210ce: 42 79        	ld	s2, 48(sp)
804210d0: a2 79        	ld	s3, 40(sp)
804210d2: 02 7a        	ld	s4, 32(sp)
804210d4: e2 6a        	ld	s5, 24(sp)
804210d6: 42 6b        	ld	s6, 16(sp)
804210d8: a2 6b        	ld	s7, 8(sp)
804210da: 61 61        	addi	sp, sp, 80
804210dc: 82 80        	ret
804210de: 81 45        	li	a1, 0
804210e0: b3 f6 55 00  	and	a3, a1, t0
804210e4: a1 81        	srli	a1, a1, 8
804210e6: b3 f5 55 00  	and	a1, a1, t0
804210ea: b6 95        	add	a1, a1, a3
804210ec: b3 85 15 03  	mul	a1, a1, a7
804210f0: c1 91        	srli	a1, a1, 48
804210f2: 2e 96        	add	a2, a2, a1
804210f4: c5 b3        	j	0x80420ed4 <.text+0xed4>
804210f6: 5d 71        	addi	sp, sp, -80
804210f8: 86 e4        	sd	ra, 72(sp)
804210fa: 2a fc        	sd	a0, 56(sp)
804210fc: ae e0        	sd	a1, 64(sp)
804210fe: 28 18        	addi	a0, sp, 56
80421100: 2a e4        	sd	a0, 8(sp)
80421102: 05 45        	li	a0, 1
80421104: 2a e8        	sd	a0, 16(sp)
80421106: 02 ec        	sd	zero, 24(sp)
80421108: 17 25 00 00  	auipc	a0, 2
8042110c: 13 05 05 75  	addi	a0, a0, 1872
80421110: 2a f4        	sd	a0, 40(sp)
80421112: 02 f8        	sd	zero, 48(sp)
80421114: 28 00        	addi	a0, sp, 8
80421116: b2 85        	mv	a1, a2
80421118: 97 f0 ff ff  	auipc	ra, 1048575
8042111c: e7 80 c0 73  	jalr	1852(ra)
80421120: 00 00        	unimp	
80421122: 14 61        	ld	a3, 0(a0)
80421124: 10 65        	ld	a2, 8(a0)
80421126: 2e 85        	mv	a0, a1
80421128: b6 85        	mv	a1, a3
8042112a: 17 03 00 00  	auipc	t1, 0
8042112e: 67 00 03 bf  	jr	-1040(t1)
80421132: 10 65        	ld	a2, 8(a0)
80421134: 08 61        	ld	a0, 0(a0)
80421136: 1c 6e        	ld	a5, 24(a2)
80421138: 82 87        	jr	a5
8042113a: 19 71        	addi	sp, sp, -128
8042113c: 86 fc        	sd	ra, 120(sp)
8042113e: a2 f8        	sd	s0, 112(sp)
80421140: a6 f4        	sd	s1, 104(sp)
80421142: ca f0        	sd	s2, 96(sp)
80421144: ce ec        	sd	s3, 88(sp)
80421146: d2 e8        	sd	s4, 80(sp)
80421148: d6 e4        	sd	s5, 72(sp)
8042114a: da e0        	sd	s6, 64(sp)
8042114c: b2 89        	mv	s3, a2
8042114e: 05 46        	li	a2, 1
80421150: 16 16        	slli	a2, a2, 37
80421152: 32 f8        	sd	a2, 48(sp)
80421154: 0d 46        	li	a2, 3
80421156: 23 0c c1 02  	sb	a2, 56(sp)
8042115a: 03 b6 09 01  	ld	a2, 16(s3)
8042115e: 02 e0        	sd	zero, 0(sp)
80421160: 02 e8        	sd	zero, 16(sp)
80421162: 2a f0        	sd	a0, 32(sp)
80421164: 2e f4        	sd	a1, 40(sp)
80421166: 69 c6        	beqz	a2, 0x80421230 <.text+0x1230>
80421168: 03 b5 89 01  	ld	a0, 24(s3)
8042116c: 63 0a 05 10  	beqz	a0, 0x80421280 <.text+0x1280>
80421170: 83 b5 09 00  	ld	a1, 0(s3)
80421174: 93 06 f5 ff  	addi	a3, a0, -1
80421178: 8e 06        	slli	a3, a3, 3
8042117a: 8d 82        	srli	a3, a3, 3
8042117c: 13 89 16 00  	addi	s2, a3, 1
80421180: 93 84 85 00  	addi	s1, a1, 8
80421184: 93 05 80 03  	li	a1, 56
80421188: 33 0a b5 02  	mul	s4, a0, a1
8042118c: 13 04 86 01  	addi	s0, a2, 24
80421190: 85 4a        	li	s5, 1
80421192: 17 fb ff ff  	auipc	s6, 1048575
80421196: 13 0b eb 6b  	addi	s6, s6, 1726
8042119a: 90 60        	ld	a2, 0(s1)
8042119c: 09 ca        	beqz	a2, 0x804211ae <.text+0x11ae>
8042119e: a2 76        	ld	a3, 40(sp)
804211a0: 02 75        	ld	a0, 32(sp)
804211a2: 83 b5 84 ff  	ld	a1, -8(s1)
804211a6: 94 6e        	ld	a3, 24(a3)
804211a8: 82 96        	jalr	a3
804211aa: 63 13 05 10  	bnez	a0, 0x804212b0 <.text+0x12b0>
804211ae: 08 48        	lw	a0, 16(s0)
804211b0: 2a da        	sw	a0, 52(sp)
804211b2: 03 05 84 01  	lb	a0, 24(s0)
804211b6: 23 0c a1 02  	sb	a0, 56(sp)
804211ba: 4c 48        	lw	a1, 20(s0)
804211bc: 03 b5 09 02  	ld	a0, 32(s3)
804211c0: 2e d8        	sw	a1, 48(sp)
804211c2: 14 60        	ld	a3, 0(s0)
804211c4: 0c 64        	ld	a1, 8(s0)
804211c6: 89 ce        	beqz	a3, 0x804211e0 <.text+0x11e0>
804211c8: 01 46        	li	a2, 0
804211ca: 63 9c 56 01  	bne	a3, s5, 0x804211e2 <.text+0x11e2>
804211ce: 92 05        	slli	a1, a1, 4
804211d0: aa 95        	add	a1, a1, a0
804211d2: 90 65        	ld	a2, 8(a1)
804211d4: 63 04 66 01  	beq	a2, s6, 0x804211dc <.text+0x11dc>
804211d8: 01 46        	li	a2, 0
804211da: 21 a0        	j	0x804211e2 <.text+0x11e2>
804211dc: 8c 61        	ld	a1, 0(a1)
804211de: 8c 61        	ld	a1, 0(a1)
804211e0: 05 46        	li	a2, 1
804211e2: 32 e0        	sd	a2, 0(sp)
804211e4: 2e e4        	sd	a1, 8(sp)
804211e6: 83 36 04 ff  	ld	a3, -16(s0)
804211ea: 83 35 84 ff  	ld	a1, -8(s0)
804211ee: 89 ce        	beqz	a3, 0x80421208 <.text+0x1208>
804211f0: 01 46        	li	a2, 0
804211f2: 63 9c 56 01  	bne	a3, s5, 0x8042120a <.text+0x120a>
804211f6: 92 05        	slli	a1, a1, 4
804211f8: aa 95        	add	a1, a1, a0
804211fa: 90 65        	ld	a2, 8(a1)
804211fc: 63 04 66 01  	beq	a2, s6, 0x80421204 <.text+0x1204>
80421200: 01 46        	li	a2, 0
80421202: 21 a0        	j	0x8042120a <.text+0x120a>
80421204: 8c 61        	ld	a1, 0(a1)
80421206: 8c 61        	ld	a1, 0(a1)
80421208: 05 46        	li	a2, 1
8042120a: 32 e8        	sd	a2, 16(sp)
8042120c: 2e ec        	sd	a1, 24(sp)
8042120e: 83 35 84 fe  	ld	a1, -24(s0)
80421212: 92 05        	slli	a1, a1, 4
80421214: 2e 95        	add	a0, a0, a1
80421216: 10 65        	ld	a2, 8(a0)
80421218: 08 61        	ld	a0, 0(a0)
8042121a: 8a 85        	mv	a1, sp
8042121c: 02 96        	jalr	a2
8042121e: 49 e9        	bnez	a0, 0x804212b0 <.text+0x12b0>
80421220: c1 04        	addi	s1, s1, 16
80421222: 13 0a 8a fc  	addi	s4, s4, -56
80421226: 13 04 84 03  	addi	s0, s0, 56
8042122a: e3 18 0a f6  	bnez	s4, 0x8042119a <.text+0x119a>
8042122e: 91 a8        	j	0x80421282 <.text+0x1282>
80421230: 03 b5 89 02  	ld	a0, 40(s3)
80421234: 21 cd        	beqz	a0, 0x8042128c <.text+0x128c>
80421236: 83 b5 09 02  	ld	a1, 32(s3)
8042123a: 03 b6 09 00  	ld	a2, 0(s3)
8042123e: 93 06 f5 ff  	addi	a3, a0, -1
80421242: 92 06        	slli	a3, a3, 4
80421244: 91 82        	srli	a3, a3, 4
80421246: 13 89 16 00  	addi	s2, a3, 1
8042124a: 13 04 86 00  	addi	s0, a2, 8
8042124e: 93 84 85 00  	addi	s1, a1, 8
80421252: 13 1a 45 00  	slli	s4, a0, 4
80421256: 10 60        	ld	a2, 0(s0)
80421258: 01 ca        	beqz	a2, 0x80421268 <.text+0x1268>
8042125a: a2 76        	ld	a3, 40(sp)
8042125c: 02 75        	ld	a0, 32(sp)
8042125e: 83 35 84 ff  	ld	a1, -8(s0)
80421262: 94 6e        	ld	a3, 24(a3)
80421264: 82 96        	jalr	a3
80421266: 29 e5        	bnez	a0, 0x804212b0 <.text+0x12b0>
80421268: 90 60        	ld	a2, 0(s1)
8042126a: 03 b5 84 ff  	ld	a0, -8(s1)
8042126e: 8a 85        	mv	a1, sp
80421270: 02 96        	jalr	a2
80421272: 1d ed        	bnez	a0, 0x804212b0 <.text+0x12b0>
80421274: 41 04        	addi	s0, s0, 16
80421276: 41 1a        	addi	s4, s4, -16
80421278: c1 04        	addi	s1, s1, 16
8042127a: e3 1e 0a fc  	bnez	s4, 0x80421256 <.text+0x1256>
8042127e: 11 a0        	j	0x80421282 <.text+0x1282>
80421280: 01 49        	li	s2, 0
80421282: 03 b5 89 00  	ld	a0, 8(s3)
80421286: 63 68 a9 00  	bltu	s2, a0, 0x80421296 <.text+0x1296>
8042128a: 2d a0        	j	0x804212b4 <.text+0x12b4>
8042128c: 01 49        	li	s2, 0
8042128e: 03 b5 89 00  	ld	a0, 8(s3)
80421292: 63 71 a9 02  	bgeu	s2, a0, 0x804212b4 <.text+0x12b4>
80421296: 03 b5 09 00  	ld	a0, 0(s3)
8042129a: 93 15 49 00  	slli	a1, s2, 4
8042129e: 33 06 b5 00  	add	a2, a0, a1
804212a2: a2 76        	ld	a3, 40(sp)
804212a4: 02 75        	ld	a0, 32(sp)
804212a6: 0c 62        	ld	a1, 0(a2)
804212a8: 10 66        	ld	a2, 8(a2)
804212aa: 94 6e        	ld	a3, 24(a3)
804212ac: 82 96        	jalr	a3
804212ae: 19 c1        	beqz	a0, 0x804212b4 <.text+0x12b4>
804212b0: 05 45        	li	a0, 1
804212b2: 11 a0        	j	0x804212b6 <.text+0x12b6>
804212b4: 01 45        	li	a0, 0
804212b6: e6 70        	ld	ra, 120(sp)
804212b8: 46 74        	ld	s0, 112(sp)
804212ba: a6 74        	ld	s1, 104(sp)
804212bc: 06 79        	ld	s2, 96(sp)
804212be: e6 69        	ld	s3, 88(sp)
804212c0: 46 6a        	ld	s4, 80(sp)
804212c2: a6 6a        	ld	s5, 72(sp)
804212c4: 06 6b        	ld	s6, 64(sp)
804212c6: 09 61        	addi	sp, sp, 128
804212c8: 82 80        	ret
804212ca: 08 61        	ld	a0, 0(a0)
804212cc: 17 03 00 00  	auipc	t1, 0
804212d0: 67 00 23 0e  	jr	226(t1)
804212d4: 75 71        	addi	sp, sp, -144
804212d6: 06 e5        	sd	ra, 136(sp)
804212d8: 03 e6 05 03  	lwu	a2, 48(a1)
804212dc: 93 76 06 01  	andi	a3, a2, 16
804212e0: 81 ee        	bnez	a3, 0x804212f8 <.text+0x12f8>
804212e2: 13 76 06 02  	andi	a2, a2, 32
804212e6: 21 e6        	bnez	a2, 0x8042132e <.text+0x132e>
804212e8: 03 65 05 00  	lwu	a0, 0(a0)
804212ec: aa 60        	ld	ra, 136(sp)
804212ee: 49 61        	addi	sp, sp, 144
804212f0: 17 f3 ff ff  	auipc	t1, 1048575
804212f4: 67 00 c3 5e  	jr	1516(t1)
804212f8: 01 46        	li	a2, 0
804212fa: 1c 41        	lw	a5, 0(a0)
804212fc: 13 08 81 00  	addi	a6, sp, 8
80421300: a9 48        	li	a7, 10
80421302: bd 42        	li	t0, 15
80421304: 19 a8        	j	0x8042131a <.text+0x131a>
80421306: 33 03 c8 00  	add	t1, a6, a2
8042130a: 9b d7 46 00  	srliw	a5, a3, 4
8042130e: 39 9d        	addw	a0, a0, a4
80421310: a3 0f a3 06  	sb	a0, 127(t1)
80421314: 7d 16        	addi	a2, a2, -1
80421316: 63 f7 d2 04  	bgeu	t0, a3, 0x80421364 <.text+0x1364>
8042131a: be 86        	mv	a3, a5
8042131c: 13 f5 f7 00  	andi	a0, a5, 15
80421320: 13 07 00 03  	li	a4, 48
80421324: e3 61 15 ff  	bltu	a0, a7, 0x80421306 <.text+0x1306>
80421328: 13 07 70 05  	li	a4, 87
8042132c: e9 bf        	j	0x80421306 <.text+0x1306>
8042132e: 01 46        	li	a2, 0
80421330: 1c 41        	lw	a5, 0(a0)
80421332: 13 08 81 00  	addi	a6, sp, 8
80421336: a9 48        	li	a7, 10
80421338: bd 42        	li	t0, 15
8042133a: 19 a8        	j	0x80421350 <.text+0x1350>
8042133c: 33 03 c8 00  	add	t1, a6, a2
80421340: 9b d7 46 00  	srliw	a5, a3, 4
80421344: 39 9d        	addw	a0, a0, a4
80421346: a3 0f a3 06  	sb	a0, 127(t1)
8042134a: 7d 16        	addi	a2, a2, -1
8042134c: 63 fc d2 00  	bgeu	t0, a3, 0x80421364 <.text+0x1364>
80421350: be 86        	mv	a3, a5
80421352: 13 f5 f7 00  	andi	a0, a5, 15
80421356: 13 07 00 03  	li	a4, 48
8042135a: e3 61 15 ff  	bltu	a0, a7, 0x8042133c <.text+0x133c>
8042135e: 13 07 70 03  	li	a4, 55
80421362: e9 bf        	j	0x8042133c <.text+0x133c>
80421364: 13 05 06 08  	addi	a0, a2, 128
80421368: 93 06 10 08  	li	a3, 129
8042136c: 63 76 d5 02  	bgeu	a0, a3, 0x80421398 <.text+0x1398>
80421370: 28 00        	addi	a0, sp, 8
80421372: 32 95        	add	a0, a0, a2
80421374: 93 06 05 08  	addi	a3, a0, 128
80421378: 33 07 c0 40  	neg	a4, a2
8042137c: 97 27 00 00  	auipc	a5, 2
80421380: 93 87 47 02  	addi	a5, a5, 36
80421384: 09 46        	li	a2, 2
80421386: 2e 85        	mv	a0, a1
80421388: be 85        	mv	a1, a5
8042138a: 97 f0 ff ff  	auipc	ra, 1048575
8042138e: e7 80 00 6b  	jalr	1712(ra)
80421392: aa 60        	ld	ra, 136(sp)
80421394: 49 61        	addi	sp, sp, 144
80421396: 82 80        	ret
80421398: 17 26 00 00  	auipc	a2, 2
8042139c: 13 06 06 ff  	addi	a2, a2, -16
804213a0: 93 05 00 08  	li	a1, 128
804213a4: 97 00 00 00  	auipc	ra, 0
804213a8: e7 80 40 8d  	jalr	-1836(ra)
804213ac: 00 00        	unimp	
804213ae: 75 71        	addi	sp, sp, -144
804213b0: 06 e5        	sd	ra, 136(sp)
804213b2: 03 e6 05 03  	lwu	a2, 48(a1)
804213b6: 93 76 06 01  	andi	a3, a2, 16
804213ba: 91 ea        	bnez	a3, 0x804213ce <.text+0x13ce>
804213bc: 13 76 06 02  	andi	a2, a2, 32
804213c0: 29 e2        	bnez	a2, 0x80421402 <.text+0x1402>
804213c2: aa 60        	ld	ra, 136(sp)
804213c4: 49 61        	addi	sp, sp, 144
804213c6: 17 f3 ff ff  	auipc	t1, 1048575
804213ca: 67 00 63 51  	jr	1302(t1)
804213ce: 01 46        	li	a2, 0
804213d0: 13 08 81 00  	addi	a6, sp, 8
804213d4: a9 48        	li	a7, 10
804213d6: bd 42        	li	t0, 15
804213d8: 19 a8        	j	0x804213ee <.text+0x13ee>
804213da: 33 03 c8 00  	add	t1, a6, a2
804213de: 13 d5 46 00  	srli	a0, a3, 4
804213e2: 3d 9f        	addw	a4, a4, a5
804213e4: a3 0f e3 06  	sb	a4, 127(t1)
804213e8: 7d 16        	addi	a2, a2, -1
804213ea: 63 f6 d2 04  	bgeu	t0, a3, 0x80421436 <.text+0x1436>
804213ee: aa 86        	mv	a3, a0
804213f0: 13 77 f5 00  	andi	a4, a0, 15
804213f4: 93 07 00 03  	li	a5, 48
804213f8: e3 61 17 ff  	bltu	a4, a7, 0x804213da <.text+0x13da>
804213fc: 93 07 70 05  	li	a5, 87
80421400: e9 bf        	j	0x804213da <.text+0x13da>
80421402: 01 46        	li	a2, 0
80421404: 13 08 81 00  	addi	a6, sp, 8
80421408: a9 48        	li	a7, 10
8042140a: bd 42        	li	t0, 15
8042140c: 19 a8        	j	0x80421422 <.text+0x1422>
8042140e: 33 03 c8 00  	add	t1, a6, a2
80421412: 13 d5 46 00  	srli	a0, a3, 4
80421416: 3d 9f        	addw	a4, a4, a5
80421418: a3 0f e3 06  	sb	a4, 127(t1)
8042141c: 7d 16        	addi	a2, a2, -1
8042141e: 63 fc d2 00  	bgeu	t0, a3, 0x80421436 <.text+0x1436>
80421422: aa 86        	mv	a3, a0
80421424: 13 77 f5 00  	andi	a4, a0, 15
80421428: 93 07 00 03  	li	a5, 48
8042142c: e3 61 17 ff  	bltu	a4, a7, 0x8042140e <.text+0x140e>
80421430: 93 07 70 03  	li	a5, 55
80421434: e9 bf        	j	0x8042140e <.text+0x140e>
80421436: 13 05 06 08  	addi	a0, a2, 128
8042143a: 93 06 10 08  	li	a3, 129
8042143e: 63 76 d5 02  	bgeu	a0, a3, 0x8042146a <.text+0x146a>
80421442: 28 00        	addi	a0, sp, 8
80421444: 32 95        	add	a0, a0, a2
80421446: 93 06 05 08  	addi	a3, a0, 128
8042144a: 33 07 c0 40  	neg	a4, a2
8042144e: 97 27 00 00  	auipc	a5, 2
80421452: 93 87 27 f5  	addi	a5, a5, -174
80421456: 09 46        	li	a2, 2
80421458: 2e 85        	mv	a0, a1
8042145a: be 85        	mv	a1, a5
8042145c: 97 f0 ff ff  	auipc	ra, 1048575
80421460: e7 80 e0 5d  	jalr	1502(ra)
80421464: aa 60        	ld	ra, 136(sp)
80421466: 49 61        	addi	sp, sp, 144
80421468: 82 80        	ret
8042146a: 17 26 00 00  	auipc	a2, 2
8042146e: 13 06 e6 f1  	addi	a2, a2, -226
80421472: 93 05 00 08  	li	a1, 128
80421476: 97 00 00 00  	auipc	ra, 0
8042147a: e7 80 20 80  	jalr	-2046(ra)
8042147e: 00 00        	unimp	
80421480: 41 11        	addi	sp, sp, -16
80421482: 06 e4        	sd	ra, 8(sp)
80421484: 97 00 00 00  	auipc	ra, 0
80421488: e7 80 a0 00  	jalr	10(ra)
8042148c: 00 00        	unimp	
8042148e: 01 11        	addi	sp, sp, -32
80421490: 06 ec        	sd	ra, 24(sp)
80421492: 17 25 00 00  	auipc	a0, 2
80421496: 13 05 e5 cf  	addi	a0, a0, -770
8042149a: 2a e4        	sd	a0, 8(sp)
8042149c: 13 05 80 02  	li	a0, 40
804214a0: 2a e8        	sd	a0, 16(sp)
804214a2: 28 00        	addi	a0, sp, 8
804214a4: 97 00 00 00  	auipc	ra, 0
804214a8: e7 80 a0 00  	jalr	10(ra)
804214ac: 00 00        	unimp	
804214ae: 5d 71        	addi	sp, sp, -80
804214b0: 86 e4        	sd	ra, 72(sp)
804214b2: 2a fc        	sd	a0, 56(sp)
804214b4: 17 05 00 00  	auipc	a0, 0
804214b8: 13 05 e5 c6  	addi	a0, a0, -914
804214bc: aa e0        	sd	a0, 64(sp)
804214be: 17 25 00 00  	auipc	a0, 2
804214c2: 13 05 25 e1  	addi	a0, a0, -494
804214c6: 2a e4        	sd	a0, 8(sp)
804214c8: 05 45        	li	a0, 1
804214ca: 2a e8        	sd	a0, 16(sp)
804214cc: 02 ec        	sd	zero, 24(sp)
804214ce: 2c 18        	addi	a1, sp, 56
804214d0: 2e f4        	sd	a1, 40(sp)
804214d2: 2a f8        	sd	a0, 48(sp)
804214d4: 97 25 00 00  	auipc	a1, 2
804214d8: 93 85 45 ce  	addi	a1, a1, -796
804214dc: 28 00        	addi	a0, sp, 8
804214de: 97 f0 ff ff  	auipc	ra, 1048575
804214e2: e7 80 60 37  	jalr	886(ra)
804214e6: 00 00        	unimp	
804214e8: 03 65 05 00  	lwu	a0, 0(a0)
804214ec: 17 f3 ff ff  	auipc	t1, 1048575
804214f0: 67 00 03 3f  	jr	1008(t1)
804214f4: 19 71        	addi	sp, sp, -128
804214f6: 86 fc        	sd	ra, 120(sp)
804214f8: 97 25 00 00  	auipc	a1, 2
804214fc: 93 85 05 17  	addi	a1, a1, 368
80421500: 2e e4        	sd	a1, 8(sp)
80421502: 93 05 b0 02  	li	a1, 43
80421506: 2e e8        	sd	a1, 16(sp)
80421508: 2a ec        	sd	a0, 24(sp)
8042150a: 17 25 00 00  	auipc	a0, 2
8042150e: 13 05 e5 18  	addi	a0, a0, 398
80421512: 2a f0        	sd	a0, 32(sp)
80421514: 28 00        	addi	a0, sp, 8
80421516: aa ec        	sd	a0, 88(sp)
80421518: 17 05 00 00  	auipc	a0, 0
8042151c: 13 05 a5 c0  	addi	a0, a0, -1014
80421520: aa f0        	sd	a0, 96(sp)
80421522: 28 08        	addi	a0, sp, 24
80421524: aa f4        	sd	a0, 104(sp)
80421526: 17 05 00 00  	auipc	a0, 0
8042152a: 13 05 c5 c0  	addi	a0, a0, -1012
8042152e: aa f8        	sd	a0, 112(sp)
80421530: 17 25 00 00  	auipc	a0, 2
80421534: 13 05 85 dd  	addi	a0, a0, -552
80421538: 2a f4        	sd	a0, 40(sp)
8042153a: 09 45        	li	a0, 2
8042153c: 2a f8        	sd	a0, 48(sp)
8042153e: 02 fc        	sd	zero, 56(sp)
80421540: ac 08        	addi	a1, sp, 88
80421542: ae e4        	sd	a1, 72(sp)
80421544: aa e8        	sd	a0, 80(sp)
80421546: 97 25 00 00  	auipc	a1, 2
8042154a: 93 85 a5 1a  	addi	a1, a1, 426
8042154e: 28 10        	addi	a0, sp, 40
80421550: 97 f0 ff ff  	auipc	ra, 1048575
80421554: e7 80 40 30  	jalr	772(ra)
80421558: 00 00        	unimp	
8042155a: 75 71        	addi	sp, sp, -144
8042155c: 06 e5        	sd	ra, 136(sp)
8042155e: 22 e1        	sd	s0, 128(sp)
80421560: a6 fc        	sd	s1, 120(sp)
80421562: ca f8        	sd	s2, 112(sp)
80421564: ce f4        	sd	s3, 104(sp)
80421566: d2 f0        	sd	s4, 96(sp)
80421568: d6 ec        	sd	s5, 88(sp)
8042156a: da e8        	sd	s6, 80(sp)
8042156c: de e4        	sd	s7, 72(sp)
8042156e: e2 e0        	sd	s8, 64(sp)
80421570: 66 fc        	sd	s9, 56(sp)
80421572: 6a f8        	sd	s10, 48(sp)
80421574: 6e f4        	sd	s11, 40(sp)
80421576: 32 89        	mv	s2, a2
80421578: 2e 8a        	mv	s4, a1
8042157a: 01 4c        	li	s8, 0
8042157c: 81 4c        	li	s9, 0
8042157e: 81 49        	li	s3, 0
80421580: 97 35 00 00  	auipc	a1, 3
80421584: 93 85 05 ae  	addi	a1, a1, -1312
80421588: 03 bb 05 00  	ld	s6, 0(a1)
8042158c: 97 35 00 00  	auipc	a1, 3
80421590: 93 85 c5 ad  	addi	a1, a1, -1316
80421594: 83 bb 05 00  	ld	s7, 0(a1)
80421598: 97 35 00 00  	auipc	a1, 3
8042159c: 93 85 85 ad  	addi	a1, a1, -1320
804215a0: 84 61        	ld	s1, 0(a1)
804215a2: 00 69        	ld	s0, 16(a0)
804215a4: 0c 61        	ld	a1, 0(a0)
804215a6: 2e f0        	sd	a1, 32(sp)
804215a8: 08 65        	ld	a0, 8(a0)
804215aa: 2a ec        	sd	a0, 24(sp)
804215ac: 33 05 c0 40  	neg	a0, a2
804215b0: 2a e4        	sd	a0, 8(sp)
804215b2: 17 25 00 00  	auipc	a0, 2
804215b6: 13 05 e5 a4  	addi	a0, a0, -1458
804215ba: 2a e8        	sd	a0, 16(sp)
804215bc: 29 4d        	li	s10, 10
804215be: 0d a0        	j	0x804215e0 <.text+0x15e0>
804215c0: 33 05 b6 00  	add	a0, a2, a1
804215c4: 03 45 f5 ff  	lbu	a0, -1(a0)
804215c8: 59 15        	addi	a0, a0, -10
804215ca: 13 35 15 00  	seqz	a0, a0
804215ce: 23 00 a4 00  	sb	a0, 0(s0)
804215d2: 62 65        	ld	a0, 24(sp)
804215d4: 14 6d        	ld	a3, 24(a0)
804215d6: 02 75        	ld	a0, 32(sp)
804215d8: 82 96        	jalr	a3
804215da: 6e 8c        	mv	s8, s11
804215dc: 63 1a 05 12  	bnez	a0, 0x80421710 <.text+0x1710>
804215e0: 13 f5 f9 0f  	andi	a0, s3, 255
804215e4: 63 14 05 12  	bnez	a0, 0x8042170c <.text+0x170c>
804215e8: 63 64 99 0f  	bltu	s2, s9, 0x804216d0 <.text+0x16d0>
804215ec: b3 05 99 41  	sub	a1, s2, s9
804215f0: 33 06 9a 01  	add	a2, s4, s9
804215f4: 41 45        	li	a0, 16
804215f6: 63 ff a5 00  	bgeu	a1, a0, 0x80421614 <.text+0x1614>
804215fa: 63 8a 2c 0d  	beq	s9, s2, 0x804216ce <.text+0x16ce>
804215fe: 81 46        	li	a3, 0
80421600: 33 05 d6 00  	add	a0, a2, a3
80421604: 03 45 05 00  	lbu	a0, 0(a0)
80421608: 63 01 a5 0b  	beq	a0, s10, 0x804216aa <.text+0x16aa>
8042160c: 85 06        	addi	a3, a3, 1
8042160e: e3 99 d5 fe  	bne	a1, a3, 0x80421600 <.text+0x1600>
80421612: 75 a8        	j	0x804216ce <.text+0x16ce>
80421614: 13 05 76 00  	addi	a0, a2, 7
80421618: 61 99        	andi	a0, a0, -8
8042161a: 63 06 c5 02  	beq	a0, a2, 0x80421646 <.text+0x1646>
8042161e: 11 8d        	sub	a0, a0, a2
80421620: 63 63 b5 00  	bltu	a0, a1, 0x80421626 <.text+0x1626>
80421624: 2e 85        	mv	a0, a1
80421626: 05 c1        	beqz	a0, 0x80421646 <.text+0x1646>
80421628: 81 46        	li	a3, 0
8042162a: 33 07 d6 00  	add	a4, a2, a3
8042162e: 03 47 07 00  	lbu	a4, 0(a4)
80421632: 63 0c a7 07  	beq	a4, s10, 0x804216aa <.text+0x16aa>
80421636: 85 06        	addi	a3, a3, 1
80421638: e3 19 d5 fe  	bne	a0, a3, 0x8042162a <.text+0x162a>
8042163c: 93 86 05 ff  	addi	a3, a1, -16
80421640: 63 f6 a6 00  	bgeu	a3, a0, 0x8042164c <.text+0x164c>
80421644: 3d a8        	j	0x80421682 <.text+0x1682>
80421646: 01 45        	li	a0, 0
80421648: 93 86 05 ff  	addi	a3, a1, -16
8042164c: 22 88        	mv	a6, s0
8042164e: 33 07 a6 00  	add	a4, a2, a0
80421652: 1c 63        	ld	a5, 0(a4)
80421654: 13 c4 f7 ff  	not	s0, a5
80421658: a5 8f        	xor	a5, a5, s1
8042165a: da 97        	add	a5, a5, s6
8042165c: 33 74 74 01  	and	s0, s0, s7
80421660: e1 8f        	and	a5, a5, s0
80421662: 89 ef        	bnez	a5, 0x8042167c <.text+0x167c>
80421664: 18 67        	ld	a4, 8(a4)
80421666: 93 47 f7 ff  	not	a5, a4
8042166a: 25 8f        	xor	a4, a4, s1
8042166c: 5a 97        	add	a4, a4, s6
8042166e: b3 f7 77 01  	and	a5, a5, s7
80421672: 7d 8f        	and	a4, a4, a5
80421674: 01 e7        	bnez	a4, 0x8042167c <.text+0x167c>
80421676: 41 05        	addi	a0, a0, 16
80421678: e3 fb a6 fc  	bgeu	a3, a0, 0x8042164e <.text+0x164e>
8042167c: 63 ea a5 0a  	bltu	a1, a0, 0x80421730 <.text+0x1730>
80421680: 42 84        	mv	s0, a6
80421682: 63 06 b5 04  	beq	a0, a1, 0x804216ce <.text+0x16ce>
80421686: 81 45        	li	a1, 0
80421688: a2 66        	ld	a3, 8(sp)
8042168a: e6 96        	add	a3, a3, s9
8042168c: aa 96        	add	a3, a3, a0
8042168e: 2a 96        	add	a2, a2, a0
80421690: 33 07 b6 00  	add	a4, a2, a1
80421694: 03 47 07 00  	lbu	a4, 0(a4)
80421698: 63 07 a7 01  	beq	a4, s10, 0x804216a6 <.text+0x16a6>
8042169c: 85 05        	addi	a1, a1, 1
8042169e: 33 87 b6 00  	add	a4, a3, a1
804216a2: 7d f7        	bnez	a4, 0x80421690 <.text+0x1690>
804216a4: 2d a0        	j	0x804216ce <.text+0x16ce>
804216a6: b3 06 b5 00  	add	a3, a0, a1
804216aa: 33 85 dc 00  	add	a0, s9, a3
804216ae: 93 0c 15 00  	addi	s9, a0, 1
804216b2: 93 b5 1c 00  	seqz	a1, s9
804216b6: 33 36 99 01  	sltu	a2, s2, s9
804216ba: d1 8d        	or	a1, a1, a2
804216bc: 91 e5        	bnez	a1, 0x804216c8 <.text+0x16c8>
804216be: 52 95        	add	a0, a0, s4
804216c0: 03 45 05 00  	lbu	a0, 0(a0)
804216c4: 63 0d a5 03  	beq	a0, s10, 0x804216fe <.text+0x16fe>
804216c8: e3 72 99 f3  	bgeu	s2, s9, 0x804215ec <.text+0x15ec>
804216cc: 11 a0        	j	0x804216d0 <.text+0x16d0>
804216ce: ca 8c        	mv	s9, s2
804216d0: 85 49        	li	s3, 1
804216d2: e2 8d        	mv	s11, s8
804216d4: ca 8a        	mv	s5, s2
804216d6: 63 0b 2c 03  	beq	s8, s2, 0x8042170c <.text+0x170c>
804216da: 03 45 04 00  	lbu	a0, 0(s0)
804216de: 01 c9        	beqz	a0, 0x804216ee <.text+0x16ee>
804216e0: 62 65        	ld	a0, 24(sp)
804216e2: 14 6d        	ld	a3, 24(a0)
804216e4: 11 46        	li	a2, 4
804216e6: 02 75        	ld	a0, 32(sp)
804216e8: c2 65        	ld	a1, 16(sp)
804216ea: 82 96        	jalr	a3
804216ec: 15 e1        	bnez	a0, 0x80421710 <.text+0x1710>
804216ee: 33 86 8a 41  	sub	a2, s5, s8
804216f2: b3 05 8a 01  	add	a1, s4, s8
804216f6: e3 95 8a ed  	bne	s5, s8, 0x804215c0 <.text+0x15c0>
804216fa: 01 45        	li	a0, 0
804216fc: c9 bd        	j	0x804215ce <.text+0x15ce>
804216fe: 81 49        	li	s3, 0
80421700: e6 8d        	mv	s11, s9
80421702: e6 8a        	mv	s5, s9
80421704: 03 45 04 00  	lbu	a0, 0(s0)
80421708: 61 fd        	bnez	a0, 0x804216e0 <.text+0x16e0>
8042170a: d5 b7        	j	0x804216ee <.text+0x16ee>
8042170c: 01 45        	li	a0, 0
8042170e: 11 a0        	j	0x80421712 <.text+0x1712>
80421710: 05 45        	li	a0, 1
80421712: aa 60        	ld	ra, 136(sp)
80421714: 0a 64        	ld	s0, 128(sp)
80421716: e6 74        	ld	s1, 120(sp)
80421718: 46 79        	ld	s2, 112(sp)
8042171a: a6 79        	ld	s3, 104(sp)
8042171c: 06 7a        	ld	s4, 96(sp)
8042171e: e6 6a        	ld	s5, 88(sp)
80421720: 46 6b        	ld	s6, 80(sp)
80421722: a6 6b        	ld	s7, 72(sp)
80421724: 06 6c        	ld	s8, 64(sp)
80421726: e2 7c        	ld	s9, 56(sp)
80421728: 42 7d        	ld	s10, 48(sp)
8042172a: a2 7d        	ld	s11, 40(sp)
8042172c: 49 61        	addi	sp, sp, 144
8042172e: 82 80        	ret
80421730: 17 26 00 00  	auipc	a2, 2
80421734: 13 06 06 d7  	addi	a2, a2, -656
80421738: 97 f0 ff ff  	auipc	ra, 1048575
8042173c: e7 80 00 54  	jalr	1344(ra)
80421740: 00 00        	unimp	
80421742: 71 71        	addi	sp, sp, -176
80421744: 06 f5        	sd	ra, 168(sp)
80421746: 22 f1        	sd	s0, 160(sp)
80421748: 26 ed        	sd	s1, 152(sp)
8042174a: 4a e9        	sd	s2, 144(sp)
8042174c: 4e e5        	sd	s3, 136(sp)
8042174e: 52 e1        	sd	s4, 128(sp)
80421750: d6 fc        	sd	s5, 120(sp)
80421752: da f8        	sd	s6, 112(sp)
80421754: de f4        	sd	s7, 104(sp)
80421756: 2a 84        	mv	s0, a0
80421758: 03 45 85 00  	lbu	a0, 8(a0)
8042175c: 85 4b        	li	s7, 1
8042175e: 85 44        	li	s1, 1
80421760: 0d c1        	beqz	a0, 0x80421782 <.text+0x1782>
80421762: 23 04 94 00  	sb	s1, 8(s0)
80421766: a3 04 74 01  	sb	s7, 9(s0)
8042176a: 22 85        	mv	a0, s0
8042176c: aa 70        	ld	ra, 168(sp)
8042176e: 0a 74        	ld	s0, 160(sp)
80421770: ea 64        	ld	s1, 152(sp)
80421772: 4a 69        	ld	s2, 144(sp)
80421774: aa 69        	ld	s3, 136(sp)
80421776: 0a 6a        	ld	s4, 128(sp)
80421778: e6 7a        	ld	s5, 120(sp)
8042177a: 46 7b        	ld	s6, 112(sp)
8042177c: a6 7b        	ld	s7, 104(sp)
8042177e: 4d 61        	addi	sp, sp, 176
80421780: 82 80        	ret
80421782: 3a 89        	mv	s2, a4
80421784: b6 89        	mv	s3, a3
80421786: 32 8a        	mv	s4, a2
80421788: ae 8a        	mv	s5, a1
8042178a: 03 3b 04 00  	ld	s6, 0(s0)
8042178e: 03 65 0b 03  	lwu	a0, 48(s6)
80421792: 83 45 94 00  	lbu	a1, 9(s0)
80421796: 13 76 45 00  	andi	a2, a0, 4
8042179a: 09 ea        	bnez	a2, 0x804217ac <.text+0x17ac>
8042179c: 13 b6 15 00  	seqz	a2, a1
804217a0: d5 cd        	beqz	a1, 0x8042185c <.text+0x185c>
804217a2: 97 25 00 00  	auipc	a1, 2
804217a6: 93 85 c5 fc  	addi	a1, a1, -52
804217aa: 6d a8        	j	0x80421864 <.text+0x1864>
804217ac: 85 e1        	bnez	a1, 0x804217cc <.text+0x17cc>
804217ae: 83 35 8b 02  	ld	a1, 40(s6)
804217b2: 03 35 0b 02  	ld	a0, 32(s6)
804217b6: 94 6d        	ld	a3, 24(a1)
804217b8: 97 25 00 00  	auipc	a1, 2
804217bc: 93 85 05 ba  	addi	a1, a1, -1120
804217c0: 0d 46        	li	a2, 3
804217c2: 82 96        	jalr	a3
804217c4: 85 44        	li	s1, 1
804217c6: 51 fd        	bnez	a0, 0x80421762 <.text+0x1762>
804217c8: 03 25 0b 03  	lw	a0, 48(s6)
804217cc: 85 44        	li	s1, 1
804217ce: a3 03 91 02  	sb	s1, 39(sp)
804217d2: 83 35 0b 02  	ld	a1, 32(s6)
804217d6: 03 36 8b 02  	ld	a2, 40(s6)
804217da: 2e e4        	sd	a1, 8(sp)
804217dc: 32 e8        	sd	a2, 16(sp)
804217de: 93 05 71 02  	addi	a1, sp, 39
804217e2: 2e ec        	sd	a1, 24(sp)
804217e4: 83 25 4b 03  	lw	a1, 52(s6)
804217e8: 03 06 8b 03  	lb	a2, 56(s6)
804217ec: 83 36 0b 00  	ld	a3, 0(s6)
804217f0: 03 37 8b 00  	ld	a4, 8(s6)
804217f4: 83 37 0b 01  	ld	a5, 16(s6)
804217f8: 03 38 8b 01  	ld	a6, 24(s6)
804217fc: aa cc        	sw	a0, 88(sp)
804217fe: ae ce        	sw	a1, 92(sp)
80421800: 23 00 c1 06  	sb	a2, 96(sp)
80421804: 36 f4        	sd	a3, 40(sp)
80421806: 3a f8        	sd	a4, 48(sp)
80421808: 3e fc        	sd	a5, 56(sp)
8042180a: c2 e0        	sd	a6, 64(sp)
8042180c: 28 00        	addi	a0, sp, 8
8042180e: aa e4        	sd	a0, 72(sp)
80421810: 17 25 00 00  	auipc	a0, 2
80421814: 13 05 85 b1  	addi	a0, a0, -1256
80421818: aa e8        	sd	a0, 80(sp)
8042181a: 28 00        	addi	a0, sp, 8
8042181c: d6 85        	mv	a1, s5
8042181e: 52 86        	mv	a2, s4
80421820: 97 00 00 00  	auipc	ra, 0
80421824: e7 80 a0 d3  	jalr	-710(ra)
80421828: 0d fd        	bnez	a0, 0x80421762 <.text+0x1762>
8042182a: 97 25 00 00  	auipc	a1, 2
8042182e: 93 85 65 ad  	addi	a1, a1, -1322
80421832: 28 00        	addi	a0, sp, 8
80421834: 09 46        	li	a2, 2
80421836: 97 00 00 00  	auipc	ra, 0
8042183a: e7 80 40 d2  	jalr	-732(ra)
8042183e: 15 f1        	bnez	a0, 0x80421762 <.text+0x1762>
80421840: 2c 10        	addi	a1, sp, 40
80421842: 4e 85        	mv	a0, s3
80421844: 02 99        	jalr	s2
80421846: 11 fd        	bnez	a0, 0x80421762 <.text+0x1762>
80421848: c6 65        	ld	a1, 80(sp)
8042184a: 26 65        	ld	a0, 72(sp)
8042184c: 94 6d        	ld	a3, 24(a1)
8042184e: 97 25 00 00  	auipc	a1, 2
80421852: 93 85 d5 b0  	addi	a1, a1, -1267
80421856: 09 46        	li	a2, 2
80421858: 82 96        	jalr	a3
8042185a: a1 a8        	j	0x804218b2 <.text+0x18b2>
8042185c: 97 25 00 00  	auipc	a1, 2
80421860: 93 85 15 b0  	addi	a1, a1, -1279
80421864: 83 36 8b 02  	ld	a3, 40(s6)
80421868: 03 35 0b 02  	ld	a0, 32(s6)
8042186c: 94 6e        	ld	a3, 24(a3)
8042186e: 13 66 26 00  	ori	a2, a2, 2
80421872: 82 96        	jalr	a3
80421874: 85 44        	li	s1, 1
80421876: e3 16 05 ee  	bnez	a0, 0x80421762 <.text+0x1762>
8042187a: 83 35 8b 02  	ld	a1, 40(s6)
8042187e: 03 35 0b 02  	ld	a0, 32(s6)
80421882: 94 6d        	ld	a3, 24(a1)
80421884: d6 85        	mv	a1, s5
80421886: 52 86        	mv	a2, s4
80421888: 82 96        	jalr	a3
8042188a: 85 44        	li	s1, 1
8042188c: e3 1b 05 ec  	bnez	a0, 0x80421762 <.text+0x1762>
80421890: 83 35 8b 02  	ld	a1, 40(s6)
80421894: 03 35 0b 02  	ld	a0, 32(s6)
80421898: 94 6d        	ld	a3, 24(a1)
8042189a: 97 25 00 00  	auipc	a1, 2
8042189e: 93 85 65 a6  	addi	a1, a1, -1434
804218a2: 09 46        	li	a2, 2
804218a4: 82 96        	jalr	a3
804218a6: 85 44        	li	s1, 1
804218a8: e3 1d 05 ea  	bnez	a0, 0x80421762 <.text+0x1762>
804218ac: 4e 85        	mv	a0, s3
804218ae: da 85        	mv	a1, s6
804218b0: 02 99        	jalr	s2
804218b2: aa 84        	mv	s1, a0
804218b4: 7d b5        	j	0x80421762 <.text+0x1762>
804218b6: 41 11        	addi	sp, sp, -16
804218b8: 06 e4        	sd	ra, 8(sp)
804218ba: 1b 86 05 00  	sext.w	a2, a1
804218be: 93 06 00 08  	li	a3, 128
804218c2: 02 c2        	sw	zero, 4(sp)
804218c4: 63 76 d6 00  	bgeu	a2, a3, 0x804218d0 <.text+0x18d0>
804218c8: 23 02 b1 00  	sb	a1, 4(sp)
804218cc: 05 46        	li	a2, 1
804218ce: 51 a8        	j	0x80421962 <.text+0x1962>
804218d0: 1b d6 b5 00  	srliw	a2, a1, 11
804218d4: 19 ee        	bnez	a2, 0x804218f2 <.text+0x18f2>
804218d6: 13 d6 65 00  	srli	a2, a1, 6
804218da: 13 66 06 0c  	ori	a2, a2, 192
804218de: 23 02 c1 00  	sb	a2, 4(sp)
804218e2: 93 f5 f5 03  	andi	a1, a1, 63
804218e6: 93 e5 05 08  	ori	a1, a1, 128
804218ea: a3 02 b1 00  	sb	a1, 5(sp)
804218ee: 09 46        	li	a2, 2
804218f0: 8d a8        	j	0x80421962 <.text+0x1962>
804218f2: 1b d6 05 01  	srliw	a2, a1, 16
804218f6: 05 ea        	bnez	a2, 0x80421926 <.text+0x1926>
804218f8: 13 96 05 02  	slli	a2, a1, 32
804218fc: 01 92        	srli	a2, a2, 32
804218fe: 9b d6 c5 00  	srliw	a3, a1, 12
80421902: 93 e6 06 0e  	ori	a3, a3, 224
80421906: 23 02 d1 00  	sb	a3, 4(sp)
8042190a: 52 16        	slli	a2, a2, 52
8042190c: 69 92        	srli	a2, a2, 58
8042190e: 13 66 06 08  	ori	a2, a2, 128
80421912: a3 02 c1 00  	sb	a2, 5(sp)
80421916: 93 f5 f5 03  	andi	a1, a1, 63
8042191a: 93 e5 05 08  	ori	a1, a1, 128
8042191e: 23 03 b1 00  	sb	a1, 6(sp)
80421922: 0d 46        	li	a2, 3
80421924: 3d a8        	j	0x80421962 <.text+0x1962>
80421926: 13 96 05 02  	slli	a2, a1, 32
8042192a: 01 92        	srli	a2, a2, 32
8042192c: 93 16 b6 02  	slli	a3, a2, 43
80421930: f5 92        	srli	a3, a3, 61
80421932: 93 e6 06 0f  	ori	a3, a3, 240
80421936: 23 02 d1 00  	sb	a3, 4(sp)
8042193a: 93 16 e6 02  	slli	a3, a2, 46
8042193e: e9 92        	srli	a3, a3, 58
80421940: 93 e6 06 08  	ori	a3, a3, 128
80421944: a3 02 d1 00  	sb	a3, 5(sp)
80421948: 52 16        	slli	a2, a2, 52
8042194a: 69 92        	srli	a2, a2, 58
8042194c: 13 66 06 08  	ori	a2, a2, 128
80421950: 23 03 c1 00  	sb	a2, 6(sp)
80421954: 93 f5 f5 03  	andi	a1, a1, 63
80421958: 93 e5 05 08  	ori	a1, a1, 128
8042195c: a3 03 b1 00  	sb	a1, 7(sp)
80421960: 11 46        	li	a2, 4
80421962: 4c 00        	addi	a1, sp, 4
80421964: 97 00 00 00  	auipc	ra, 0
80421968: e7 80 60 bf  	jalr	-1034(ra)
8042196c: a2 60        	ld	ra, 8(sp)
8042196e: 41 01        	addi	sp, sp, 16
80421970: 82 80        	ret
80421972: 39 71        	addi	sp, sp, -64
80421974: 06 fc        	sd	ra, 56(sp)
80421976: 90 75        	ld	a2, 40(a1)
80421978: 94 71        	ld	a3, 32(a1)
8042197a: 2a e0        	sd	a0, 0(sp)
8042197c: 32 f8        	sd	a2, 48(sp)
8042197e: 36 f4        	sd	a3, 40(sp)
80421980: 88 6d        	ld	a0, 24(a1)
80421982: 90 69        	ld	a2, 16(a1)
80421984: 94 65        	ld	a3, 8(a1)
80421986: 8c 61        	ld	a1, 0(a1)
80421988: 2a f0        	sd	a0, 32(sp)
8042198a: 32 ec        	sd	a2, 24(sp)
8042198c: 36 e8        	sd	a3, 16(sp)
8042198e: 2e e4        	sd	a1, 8(sp)
80421990: 97 25 00 00  	auipc	a1, 2
80421994: 93 85 05 ae  	addi	a1, a1, -1312
80421998: 0a 85        	mv	a0, sp
8042199a: 30 00        	addi	a2, sp, 8
8042199c: 97 f0 ff ff  	auipc	ra, 1048575
804219a0: e7 80 e0 79  	jalr	1950(ra)
804219a4: e2 70        	ld	ra, 56(sp)
804219a6: 21 61        	addi	sp, sp, 64
804219a8: 82 80        	ret
804219aa: 08 61        	ld	a0, 0(a0)
804219ac: 17 03 00 00  	auipc	t1, 0
804219b0: 67 00 e3 ba  	jr	-1106(t1)
804219b4: 41 11        	addi	sp, sp, -16
804219b6: 06 e4        	sd	ra, 8(sp)
804219b8: 08 61        	ld	a0, 0(a0)
804219ba: 1b 86 05 00  	sext.w	a2, a1
804219be: 93 06 00 08  	li	a3, 128
804219c2: 02 c2        	sw	zero, 4(sp)
804219c4: 63 76 d6 00  	bgeu	a2, a3, 0x804219d0 <.text+0x19d0>
804219c8: 23 02 b1 00  	sb	a1, 4(sp)
804219cc: 05 46        	li	a2, 1
804219ce: 51 a8        	j	0x80421a62 <.text+0x1a62>
804219d0: 1b d6 b5 00  	srliw	a2, a1, 11
804219d4: 19 ee        	bnez	a2, 0x804219f2 <.text+0x19f2>
804219d6: 13 d6 65 00  	srli	a2, a1, 6
804219da: 13 66 06 0c  	ori	a2, a2, 192
804219de: 23 02 c1 00  	sb	a2, 4(sp)
804219e2: 93 f5 f5 03  	andi	a1, a1, 63
804219e6: 93 e5 05 08  	ori	a1, a1, 128
804219ea: a3 02 b1 00  	sb	a1, 5(sp)
804219ee: 09 46        	li	a2, 2
804219f0: 8d a8        	j	0x80421a62 <.text+0x1a62>
804219f2: 1b d6 05 01  	srliw	a2, a1, 16
804219f6: 05 ea        	bnez	a2, 0x80421a26 <.text+0x1a26>
804219f8: 13 96 05 02  	slli	a2, a1, 32
804219fc: 01 92        	srli	a2, a2, 32
804219fe: 9b d6 c5 00  	srliw	a3, a1, 12
80421a02: 93 e6 06 0e  	ori	a3, a3, 224
80421a06: 23 02 d1 00  	sb	a3, 4(sp)
80421a0a: 52 16        	slli	a2, a2, 52
80421a0c: 69 92        	srli	a2, a2, 58
80421a0e: 13 66 06 08  	ori	a2, a2, 128
80421a12: a3 02 c1 00  	sb	a2, 5(sp)
80421a16: 93 f5 f5 03  	andi	a1, a1, 63
80421a1a: 93 e5 05 08  	ori	a1, a1, 128
80421a1e: 23 03 b1 00  	sb	a1, 6(sp)
80421a22: 0d 46        	li	a2, 3
80421a24: 3d a8        	j	0x80421a62 <.text+0x1a62>
80421a26: 13 96 05 02  	slli	a2, a1, 32
80421a2a: 01 92        	srli	a2, a2, 32
80421a2c: 93 16 b6 02  	slli	a3, a2, 43
80421a30: f5 92        	srli	a3, a3, 61
80421a32: 93 e6 06 0f  	ori	a3, a3, 240
80421a36: 23 02 d1 00  	sb	a3, 4(sp)
80421a3a: 93 16 e6 02  	slli	a3, a2, 46
80421a3e: e9 92        	srli	a3, a3, 58
80421a40: 93 e6 06 08  	ori	a3, a3, 128
80421a44: a3 02 d1 00  	sb	a3, 5(sp)
80421a48: 52 16        	slli	a2, a2, 52
80421a4a: 69 92        	srli	a2, a2, 58
80421a4c: 13 66 06 08  	ori	a2, a2, 128
80421a50: 23 03 c1 00  	sb	a2, 6(sp)
80421a54: 93 f5 f5 03  	andi	a1, a1, 63
80421a58: 93 e5 05 08  	ori	a1, a1, 128
80421a5c: a3 03 b1 00  	sb	a1, 7(sp)
80421a60: 11 46        	li	a2, 4
80421a62: 4c 00        	addi	a1, sp, 4
80421a64: 97 00 00 00  	auipc	ra, 0
80421a68: e7 80 60 af  	jalr	-1290(ra)
80421a6c: a2 60        	ld	ra, 8(sp)
80421a6e: 41 01        	addi	sp, sp, 16
80421a70: 82 80        	ret
80421a72: 39 71        	addi	sp, sp, -64
80421a74: 06 fc        	sd	ra, 56(sp)
80421a76: 08 61        	ld	a0, 0(a0)
80421a78: 90 75        	ld	a2, 40(a1)
80421a7a: 94 71        	ld	a3, 32(a1)
80421a7c: 2a e0        	sd	a0, 0(sp)
80421a7e: 32 f8        	sd	a2, 48(sp)
80421a80: 36 f4        	sd	a3, 40(sp)
80421a82: 88 6d        	ld	a0, 24(a1)
80421a84: 90 69        	ld	a2, 16(a1)
80421a86: 94 65        	ld	a3, 8(a1)
80421a88: 8c 61        	ld	a1, 0(a1)
80421a8a: 2a f0        	sd	a0, 32(sp)
80421a8c: 32 ec        	sd	a2, 24(sp)
80421a8e: 36 e8        	sd	a3, 16(sp)
80421a90: 2e e4        	sd	a1, 8(sp)
80421a92: 97 25 00 00  	auipc	a1, 2
80421a96: 93 85 e5 9d  	addi	a1, a1, -1570
80421a9a: 0a 85        	mv	a0, sp
80421a9c: 30 00        	addi	a2, sp, 8
80421a9e: 97 f0 ff ff  	auipc	ra, 1048575
80421aa2: e7 80 c0 69  	jalr	1692(ra)
80421aa6: e2 70        	ld	ra, 56(sp)
80421aa8: 21 61        	addi	sp, sp, 64
80421aaa: 82 80        	ret
80421aac: 08 61        	ld	a0, 0(a0)
80421aae: 08 61        	ld	a0, 0(a0)
80421ab0: 17 03 00 00  	auipc	t1, 0
80421ab4: 67 00 e3 8f  	jr	-1794(t1)
80421ab8: 75 71        	addi	sp, sp, -144
80421aba: 06 e5        	sd	ra, 136(sp)
80421abc: 03 e6 05 03  	lwu	a2, 48(a1)
80421ac0: 03 45 05 00  	lbu	a0, 0(a0)
80421ac4: 93 76 06 01  	andi	a3, a2, 16
80421ac8: 91 ea        	bnez	a3, 0x80421adc <.text+0x1adc>
80421aca: 13 76 06 02  	andi	a2, a2, 32
80421ace: 31 e2        	bnez	a2, 0x80421b12 <.text+0x1b12>
80421ad0: aa 60        	ld	ra, 136(sp)
80421ad2: 49 61        	addi	sp, sp, 144
80421ad4: 17 f3 ff ff  	auipc	t1, 1048575
80421ad8: 67 00 83 e0  	jr	-504(t1)
80421adc: 01 46        	li	a2, 0
80421ade: 13 08 81 00  	addi	a6, sp, 8
80421ae2: a9 48        	li	a7, 10
80421ae4: bd 42        	li	t0, 15
80421ae6: 29 a8        	j	0x80421b00 <.text+0x1b00>
80421ae8: 33 03 c8 00  	add	t1, a6, a2
80421aec: 93 77 f5 0f  	andi	a5, a0, 255
80421af0: 13 d5 47 00  	srli	a0, a5, 4
80421af4: b9 9e        	addw	a3, a3, a4
80421af6: a3 0f d3 06  	sb	a3, 127(t1)
80421afa: 7d 16        	addi	a2, a2, -1
80421afc: 63 f6 f2 04  	bgeu	t0, a5, 0x80421b48 <.text+0x1b48>
80421b00: 93 76 f5 00  	andi	a3, a0, 15
80421b04: 13 07 00 03  	li	a4, 48
80421b08: e3 e0 16 ff  	bltu	a3, a7, 0x80421ae8 <.text+0x1ae8>
80421b0c: 13 07 70 05  	li	a4, 87
80421b10: e1 bf        	j	0x80421ae8 <.text+0x1ae8>
80421b12: 01 46        	li	a2, 0
80421b14: 13 08 81 00  	addi	a6, sp, 8
80421b18: a9 48        	li	a7, 10
80421b1a: bd 42        	li	t0, 15
80421b1c: 29 a8        	j	0x80421b36 <.text+0x1b36>
80421b1e: 33 03 c8 00  	add	t1, a6, a2
80421b22: 93 77 f5 0f  	andi	a5, a0, 255
80421b26: 13 d5 47 00  	srli	a0, a5, 4
80421b2a: b9 9e        	addw	a3, a3, a4
80421b2c: a3 0f d3 06  	sb	a3, 127(t1)
80421b30: 7d 16        	addi	a2, a2, -1
80421b32: 63 fb f2 00  	bgeu	t0, a5, 0x80421b48 <.text+0x1b48>
80421b36: 93 76 f5 00  	andi	a3, a0, 15
80421b3a: 13 07 00 03  	li	a4, 48
80421b3e: e3 e0 16 ff  	bltu	a3, a7, 0x80421b1e <.text+0x1b1e>
80421b42: 13 07 70 03  	li	a4, 55
80421b46: e1 bf        	j	0x80421b1e <.text+0x1b1e>
80421b48: 13 05 06 08  	addi	a0, a2, 128
80421b4c: 93 06 10 08  	li	a3, 129
80421b50: 63 76 d5 02  	bgeu	a0, a3, 0x80421b7c <.text+0x1b7c>
80421b54: 28 00        	addi	a0, sp, 8
80421b56: 32 95        	add	a0, a0, a2
80421b58: 93 06 05 08  	addi	a3, a0, 128
80421b5c: 33 07 c0 40  	neg	a4, a2
80421b60: 97 27 00 00  	auipc	a5, 2
80421b64: 93 87 07 84  	addi	a5, a5, -1984
80421b68: 09 46        	li	a2, 2
80421b6a: 2e 85        	mv	a0, a1
80421b6c: be 85        	mv	a1, a5
80421b6e: 97 f0 ff ff  	auipc	ra, 1048575
80421b72: e7 80 c0 ec  	jalr	-308(ra)
80421b76: aa 60        	ld	ra, 136(sp)
80421b78: 49 61        	addi	sp, sp, 144
80421b7a: 82 80        	ret
80421b7c: 17 26 00 00  	auipc	a2, 2
80421b80: 13 06 c6 80  	addi	a2, a2, -2036
80421b84: 93 05 00 08  	li	a1, 128
80421b88: 97 f0 ff ff  	auipc	ra, 1048575
80421b8c: e7 80 00 0f  	jalr	240(ra)
80421b90: 00 00        	unimp	
80421b92: 79 71        	addi	sp, sp, -48
80421b94: 06 f4        	sd	ra, 40(sp)
80421b96: 22 f0        	sd	s0, 32(sp)
80421b98: 2e 84        	mv	s0, a1
80421b9a: 2a e0        	sd	a0, 0(sp)
80421b9c: 8c 75        	ld	a1, 40(a1)
80421b9e: 21 05        	addi	a0, a0, 8
80421ba0: 2a e4        	sd	a0, 8(sp)
80421ba2: 08 70        	ld	a0, 32(s0)
80421ba4: 94 6d        	ld	a3, 24(a1)
80421ba6: 97 25 00 00  	auipc	a1, 2
80421baa: 93 85 a5 a9  	addi	a1, a1, -1382
80421bae: 25 46        	li	a2, 9
80421bb0: 82 96        	jalr	a3
80421bb2: 22 e8        	sd	s0, 16(sp)
80421bb4: 23 0c a1 00  	sb	a0, 24(sp)
80421bb8: a3 0c 01 00  	sb	zero, 25(sp)
80421bbc: 97 25 00 00  	auipc	a1, 2
80421bc0: 93 85 d5 a8  	addi	a1, a1, -1395
80421bc4: 17 07 00 00  	auipc	a4, 0
80421bc8: 13 07 87 ee  	addi	a4, a4, -280
80421bcc: 08 08        	addi	a0, sp, 16
80421bce: 2d 46        	li	a2, 11
80421bd0: 8a 86        	mv	a3, sp
80421bd2: 97 00 00 00  	auipc	ra, 0
80421bd6: e7 80 00 b7  	jalr	-1168(ra)
80421bda: 97 25 00 00  	auipc	a1, 2
80421bde: 93 85 a5 a7  	addi	a1, a1, -1414
80421be2: 17 07 00 00  	auipc	a4, 0
80421be6: 13 07 07 06  	addi	a4, a4, 96
80421bea: 08 08        	addi	a0, sp, 16
80421bec: 25 46        	li	a2, 9
80421bee: 34 00        	addi	a3, sp, 8
80421bf0: 97 00 00 00  	auipc	ra, 0
80421bf4: e7 80 20 b5  	jalr	-1198(ra)
80421bf8: 03 45 91 01  	lbu	a0, 25(sp)
80421bfc: 83 45 81 01  	lbu	a1, 24(sp)
80421c00: 1d c9        	beqz	a0, 0x80421c36 <.text+0x1c36>
80421c02: 05 45        	li	a0, 1
80421c04: 85 e9        	bnez	a1, 0x80421c34 <.text+0x1c34>
80421c06: 42 65        	ld	a0, 16(sp)
80421c08: 83 45 05 03  	lbu	a1, 48(a0)
80421c0c: 91 89        	andi	a1, a1, 4
80421c0e: 91 e9        	bnez	a1, 0x80421c22 <.text+0x1c22>
80421c10: 0c 75        	ld	a1, 40(a0)
80421c12: 08 71        	ld	a0, 32(a0)
80421c14: 94 6d        	ld	a3, 24(a1)
80421c16: 97 15 00 00  	auipc	a1, 1
80421c1a: 93 85 b5 74  	addi	a1, a1, 1867
80421c1e: 09 46        	li	a2, 2
80421c20: 09 a8        	j	0x80421c32 <.text+0x1c32>
80421c22: 0c 75        	ld	a1, 40(a0)
80421c24: 08 71        	ld	a0, 32(a0)
80421c26: 94 6d        	ld	a3, 24(a1)
80421c28: 97 15 00 00  	auipc	a1, 1
80421c2c: 93 85 85 73  	addi	a1, a1, 1848
80421c30: 05 46        	li	a2, 1
80421c32: 82 96        	jalr	a3
80421c34: aa 85        	mv	a1, a0
80421c36: 33 35 b0 00  	snez	a0, a1
80421c3a: a2 70        	ld	ra, 40(sp)
80421c3c: 02 74        	ld	s0, 32(sp)
80421c3e: 45 61        	addi	sp, sp, 48
80421c40: 82 80        	ret
80421c42: 71 71        	addi	sp, sp, -176
80421c44: 06 f5        	sd	ra, 168(sp)
80421c46: 22 f1        	sd	s0, 160(sp)
80421c48: 26 ed        	sd	s1, 152(sp)
80421c4a: 4a e9        	sd	s2, 144(sp)
80421c4c: 4e e5        	sd	s3, 136(sp)
80421c4e: 52 e1        	sd	s4, 128(sp)
80421c50: d6 fc        	sd	s5, 120(sp)
80421c52: da f8        	sd	s6, 112(sp)
80421c54: de f4        	sd	s7, 104(sp)
80421c56: 04 61        	ld	s1, 0(a0)
80421c58: 03 c5 04 00  	lbu	a0, 0(s1)
80421c5c: 2e 84        	mv	s0, a1
80421c5e: 21 c9        	beqz	a0, 0x80421cae <.text+0x1cae>
80421c60: 03 3a 84 02  	ld	s4, 40(s0)
80421c64: 83 3a 04 02  	ld	s5, 32(s0)
80421c68: 83 3b 8a 01  	ld	s7, 24(s4)
80421c6c: 97 15 00 00  	auipc	a1, 1
80421c70: 93 85 c5 39  	addi	a1, a1, 924
80421c74: 11 46        	li	a2, 4
80421c76: 56 85        	mv	a0, s5
80421c78: 82 9b        	jalr	s7
80421c7a: 85 49        	li	s3, 1
80421c7c: 69 ed        	bnez	a0, 0x80421d56 <.text+0x1d56>
80421c7e: 03 6b 04 03  	lwu	s6, 48(s0)
80421c82: 13 75 4b 00  	andi	a0, s6, 4
80421c86: 13 89 14 00  	addi	s2, s1, 1
80421c8a: 29 e5        	bnez	a0, 0x80421cd4 <.text+0x1cd4>
80421c8c: 97 15 00 00  	auipc	a1, 1
80421c90: 93 85 95 6d  	addi	a1, a1, 1753
80421c94: 05 46        	li	a2, 1
80421c96: 85 49        	li	s3, 1
80421c98: 56 85        	mv	a0, s5
80421c9a: 82 9b        	jalr	s7
80421c9c: 4d ed        	bnez	a0, 0x80421d56 <.text+0x1d56>
80421c9e: 4a 85        	mv	a0, s2
80421ca0: a2 85        	mv	a1, s0
80421ca2: 97 00 00 00  	auipc	ra, 0
80421ca6: e7 80 60 e1  	jalr	-490(ra)
80421caa: 41 cd        	beqz	a0, 0x80421d42 <.text+0x1d42>
80421cac: 6d a0        	j	0x80421d56 <.text+0x1d56>
80421cae: 0c 74        	ld	a1, 40(s0)
80421cb0: 08 70        	ld	a0, 32(s0)
80421cb2: 9c 6d        	ld	a5, 24(a1)
80421cb4: 97 15 00 00  	auipc	a1, 1
80421cb8: 93 85 c5 35  	addi	a1, a1, 860
80421cbc: 11 46        	li	a2, 4
80421cbe: aa 70        	ld	ra, 168(sp)
80421cc0: 0a 74        	ld	s0, 160(sp)
80421cc2: ea 64        	ld	s1, 152(sp)
80421cc4: 4a 69        	ld	s2, 144(sp)
80421cc6: aa 69        	ld	s3, 136(sp)
80421cc8: 0a 6a        	ld	s4, 128(sp)
80421cca: e6 7a        	ld	s5, 120(sp)
80421ccc: 46 7b        	ld	s6, 112(sp)
80421cce: a6 7b        	ld	s7, 104(sp)
80421cd0: 4d 61        	addi	sp, sp, 176
80421cd2: 82 87        	jr	a5
80421cd4: 97 15 00 00  	auipc	a1, 1
80421cd8: 93 85 f5 68  	addi	a1, a1, 1679
80421cdc: 09 46        	li	a2, 2
80421cde: 56 85        	mv	a0, s5
80421ce0: 82 9b        	jalr	s7
80421ce2: 35 e9        	bnez	a0, 0x80421d56 <.text+0x1d56>
80421ce4: 85 49        	li	s3, 1
80421ce6: a3 03 31 03  	sb	s3, 39(sp)
80421cea: 56 e4        	sd	s5, 8(sp)
80421cec: 52 e8        	sd	s4, 16(sp)
80421cee: 13 05 71 02  	addi	a0, sp, 39
80421cf2: 2a ec        	sd	a0, 24(sp)
80421cf4: 48 58        	lw	a0, 52(s0)
80421cf6: 83 05 84 03  	lb	a1, 56(s0)
80421cfa: 10 60        	ld	a2, 0(s0)
80421cfc: 14 64        	ld	a3, 8(s0)
80421cfe: 18 68        	ld	a4, 16(s0)
80421d00: 1c 6c        	ld	a5, 24(s0)
80421d02: da cc        	sw	s6, 88(sp)
80421d04: aa ce        	sw	a0, 92(sp)
80421d06: 23 00 b1 06  	sb	a1, 96(sp)
80421d0a: 32 f4        	sd	a2, 40(sp)
80421d0c: 36 f8        	sd	a3, 48(sp)
80421d0e: 3a fc        	sd	a4, 56(sp)
80421d10: be e0        	sd	a5, 64(sp)
80421d12: 28 00        	addi	a0, sp, 8
80421d14: aa e4        	sd	a0, 72(sp)
80421d16: 17 15 00 00  	auipc	a0, 1
80421d1a: 13 05 25 61  	addi	a0, a0, 1554
80421d1e: aa e8        	sd	a0, 80(sp)
80421d20: 2c 10        	addi	a1, sp, 40
80421d22: 4a 85        	mv	a0, s2
80421d24: 97 00 00 00  	auipc	ra, 0
80421d28: e7 80 40 d9  	jalr	-620(ra)
80421d2c: 0d e5        	bnez	a0, 0x80421d56 <.text+0x1d56>
80421d2e: c6 65        	ld	a1, 80(sp)
80421d30: 26 65        	ld	a0, 72(sp)
80421d32: 94 6d        	ld	a3, 24(a1)
80421d34: 97 15 00 00  	auipc	a1, 1
80421d38: 93 85 75 62  	addi	a1, a1, 1575
80421d3c: 09 46        	li	a2, 2
80421d3e: 82 96        	jalr	a3
80421d40: 19 e9        	bnez	a0, 0x80421d56 <.text+0x1d56>
80421d42: 0c 74        	ld	a1, 40(s0)
80421d44: 08 70        	ld	a0, 32(s0)
80421d46: 94 6d        	ld	a3, 24(a1)
80421d48: 97 15 00 00  	auipc	a1, 1
80421d4c: 93 85 f5 4b  	addi	a1, a1, 1215
80421d50: 05 46        	li	a2, 1
80421d52: 82 96        	jalr	a3
80421d54: aa 89        	mv	s3, a0
80421d56: 4e 85        	mv	a0, s3
80421d58: aa 70        	ld	ra, 168(sp)
80421d5a: 0a 74        	ld	s0, 160(sp)
80421d5c: ea 64        	ld	s1, 152(sp)
80421d5e: 4a 69        	ld	s2, 144(sp)
80421d60: aa 69        	ld	s3, 136(sp)
80421d62: 0a 6a        	ld	s4, 128(sp)
80421d64: e6 7a        	ld	s5, 120(sp)
80421d66: 46 7b        	ld	s6, 112(sp)
80421d68: a6 7b        	ld	s7, 104(sp)
80421d6a: 4d 61        	addi	sp, sp, 176
80421d6c: 82 80        	ret
80421d6e: 79 71        	addi	sp, sp, -48
80421d70: 06 f4        	sd	ra, 40(sp)
80421d72: 22 f0        	sd	s0, 32(sp)
80421d74: 2e 84        	mv	s0, a1
80421d76: 2a e0        	sd	a0, 0(sp)
80421d78: 8c 75        	ld	a1, 40(a1)
80421d7a: 21 05        	addi	a0, a0, 8
80421d7c: 2a e4        	sd	a0, 8(sp)
80421d7e: 08 70        	ld	a0, 32(s0)
80421d80: 94 6d        	ld	a3, 24(a1)
80421d82: 97 25 00 00  	auipc	a1, 2
80421d86: 93 85 b5 8d  	addi	a1, a1, -1829
80421d8a: 19 46        	li	a2, 6
80421d8c: 82 96        	jalr	a3
80421d8e: 22 e8        	sd	s0, 16(sp)
80421d90: 23 0c a1 00  	sb	a0, 24(sp)
80421d94: a3 0c 01 00  	sb	zero, 25(sp)
80421d98: 97 15 00 00  	auipc	a1, 1
80421d9c: 93 85 c5 26  	addi	a1, a1, 620
80421da0: 17 07 00 00  	auipc	a4, 0
80421da4: 13 07 c7 d0  	addi	a4, a4, -756
80421da8: 08 08        	addi	a0, sp, 16
80421daa: 11 46        	li	a2, 4
80421dac: 8a 86        	mv	a3, sp
80421dae: 97 00 00 00  	auipc	ra, 0
80421db2: e7 80 40 99  	jalr	-1644(ra)
80421db6: 97 25 00 00  	auipc	a1, 2
80421dba: 93 85 d5 8a  	addi	a1, a1, -1875
80421dbe: 17 07 00 00  	auipc	a4, 0
80421dc2: 13 07 07 06  	addi	a4, a4, 96
80421dc6: 08 08        	addi	a0, sp, 16
80421dc8: 15 46        	li	a2, 5
80421dca: 34 00        	addi	a3, sp, 8
80421dcc: 97 00 00 00  	auipc	ra, 0
80421dd0: e7 80 60 97  	jalr	-1674(ra)
80421dd4: 03 45 91 01  	lbu	a0, 25(sp)
80421dd8: 83 45 81 01  	lbu	a1, 24(sp)
80421ddc: 1d c9        	beqz	a0, 0x80421e12 <.text+0x1e12>
80421dde: 05 45        	li	a0, 1
80421de0: 85 e9        	bnez	a1, 0x80421e10 <.text+0x1e10>
80421de2: 42 65        	ld	a0, 16(sp)
80421de4: 83 45 05 03  	lbu	a1, 48(a0)
80421de8: 91 89        	andi	a1, a1, 4
80421dea: 91 e9        	bnez	a1, 0x80421dfe <.text+0x1dfe>
80421dec: 0c 75        	ld	a1, 40(a0)
80421dee: 08 71        	ld	a0, 32(a0)
80421df0: 94 6d        	ld	a3, 24(a1)
80421df2: 97 15 00 00  	auipc	a1, 1
80421df6: 93 85 f5 56  	addi	a1, a1, 1391
80421dfa: 09 46        	li	a2, 2
80421dfc: 09 a8        	j	0x80421e0e <.text+0x1e0e>
80421dfe: 0c 75        	ld	a1, 40(a0)
80421e00: 08 71        	ld	a0, 32(a0)
80421e02: 94 6d        	ld	a3, 24(a1)
80421e04: 97 15 00 00  	auipc	a1, 1
80421e08: 93 85 c5 55  	addi	a1, a1, 1372
80421e0c: 05 46        	li	a2, 1
80421e0e: 82 96        	jalr	a3
80421e10: aa 85        	mv	a1, a0
80421e12: 33 35 b0 00  	snez	a0, a1
80421e16: a2 70        	ld	ra, 40(sp)
80421e18: 02 74        	ld	s0, 32(sp)
80421e1a: 45 61        	addi	sp, sp, 48
80421e1c: 82 80        	ret
80421e1e: 59 71        	addi	sp, sp, -112
80421e20: 86 f4        	sd	ra, 104(sp)
80421e22: 08 61        	ld	a0, 0(a0)
80421e24: 08 61        	ld	a0, 0(a0)
80421e26: 2a f4        	sd	a0, 40(sp)
80421e28: 13 06 f5 ff  	addi	a2, a0, -1
80421e2c: 13 45 f5 ff  	not	a0, a0
80421e30: 71 8d        	and	a0, a0, a2
80421e32: 17 26 00 00  	auipc	a2, 2
80421e36: 13 06 66 24  	addi	a2, a2, 582
80421e3a: 10 62        	ld	a2, 0(a2)
80421e3c: 97 26 00 00  	auipc	a3, 2
80421e40: 93 86 46 24  	addi	a3, a3, 580
80421e44: 94 62        	ld	a3, 0(a3)
80421e46: 13 57 15 00  	srli	a4, a0, 1
80421e4a: 79 8e        	and	a2, a2, a4
80421e4c: 11 8d        	sub	a0, a0, a2
80421e4e: 33 76 d5 00  	and	a2, a0, a3
80421e52: 09 81        	srli	a0, a0, 2
80421e54: 75 8d        	and	a0, a0, a3
80421e56: 32 95        	add	a0, a0, a2
80421e58: 17 26 00 00  	auipc	a2, 2
80421e5c: 13 06 06 23  	addi	a2, a2, 560
80421e60: 10 62        	ld	a2, 0(a2)
80421e62: 97 26 00 00  	auipc	a3, 2
80421e66: 93 86 e6 22  	addi	a3, a3, 558
80421e6a: 94 62        	ld	a3, 0(a3)
80421e6c: 13 57 45 00  	srli	a4, a0, 4
80421e70: 3a 95        	add	a0, a0, a4
80421e72: 71 8d        	and	a0, a0, a2
80421e74: 33 05 d5 02  	mul	a0, a0, a3
80421e78: 61 91        	srli	a0, a0, 56
80421e7a: 2a da        	sw	a0, 52(sp)
80421e7c: 28 10        	addi	a0, sp, 40
80421e7e: 2a e4        	sd	a0, 8(sp)
80421e80: 17 f5 ff ff  	auipc	a0, 1048575
80421e84: 13 05 a5 44  	addi	a0, a0, 1098
80421e88: 2a e8        	sd	a0, 16(sp)
80421e8a: 48 18        	addi	a0, sp, 52
80421e8c: 2a ec        	sd	a0, 24(sp)
80421e8e: 17 f5 ff ff  	auipc	a0, 1048575
80421e92: 13 05 65 44  	addi	a0, a0, 1094
80421e96: 2a f0        	sd	a0, 32(sp)
80421e98: 88 71        	ld	a0, 32(a1)
80421e9a: 8c 75        	ld	a1, 40(a1)
80421e9c: 17 16 00 00  	auipc	a2, 1
80421ea0: 13 06 c6 36  	addi	a2, a2, 876
80421ea4: 32 fc        	sd	a2, 56(sp)
80421ea6: 0d 46        	li	a2, 3
80421ea8: b2 e0        	sd	a2, 64(sp)
80421eaa: 82 e4        	sd	zero, 72(sp)
80421eac: 30 00        	addi	a2, sp, 8
80421eae: b2 ec        	sd	a2, 88(sp)
80421eb0: 09 46        	li	a2, 2
80421eb2: b2 f0        	sd	a2, 96(sp)
80421eb4: 30 18        	addi	a2, sp, 56
80421eb6: 97 f0 ff ff  	auipc	ra, 1048575
80421eba: e7 80 40 28  	jalr	644(ra)
80421ebe: a6 70        	ld	ra, 104(sp)
80421ec0: 65 61        	addi	sp, sp, 112
80421ec2: 82 80        	ret
80421ec4: 5d 71        	addi	sp, sp, -80
80421ec6: 2a e0        	sd	a0, 0(sp)
80421ec8: 2e e4        	sd	a1, 8(sp)
80421eca: 0a 85        	mv	a0, sp
80421ecc: aa e0        	sd	a0, 64(sp)
80421ece: 17 05 00 00  	auipc	a0, 0
80421ed2: 13 05 05 ea  	addi	a0, a0, -352
80421ed6: aa e4        	sd	a0, 72(sp)
80421ed8: 17 15 00 00  	auipc	a0, 1
80421edc: 13 05 05 7e  	addi	a0, a0, 2016
80421ee0: 2a e8        	sd	a0, 16(sp)
80421ee2: 05 45        	li	a0, 1
80421ee4: 2a ec        	sd	a0, 24(sp)
80421ee6: 02 f0        	sd	zero, 32(sp)
80421ee8: 8c 00        	addi	a1, sp, 64
80421eea: 2e f8        	sd	a1, 48(sp)
80421eec: 2a fc        	sd	a0, 56(sp)
80421eee: 97 15 00 00  	auipc	a1, 1
80421ef2: 93 85 a5 7e  	addi	a1, a1, 2026
80421ef6: 08 08        	addi	a0, sp, 16
80421ef8: 97 f0 ff ff  	auipc	ra, 1048575
80421efc: e7 80 c0 95  	jalr	-1700(ra)
80421f00: 00 00        	unimp	
80421f02: 41 11        	addi	sp, sp, -16
80421f04: 06 e4        	sd	ra, 8(sp)
80421f06: 22 e0        	sd	s0, 0(sp)
80421f08: 2a 84        	mv	s0, a0
80421f0a: 97 00 00 00  	auipc	ra, 0
80421f0e: e7 80 a0 74  	jalr	1866(ra)
80421f12: 22 85        	mv	a0, s0
80421f14: 97 00 00 00  	auipc	ra, 0
80421f18: e7 80 c0 34  	jalr	844(ra)
80421f1c: 00 00        	unimp	
80421f1e: 82 80        	ret
80421f20: 17 e3 ff ff  	auipc	t1, 1048574
80421f24: 67 00 a3 5a  	jr	1450(t1)
80421f28: 17 e3 ff ff  	auipc	t1, 1048574
80421f2c: 67 00 a3 77  	jr	1914(t1)
80421f30: 79 71        	addi	sp, sp, -48
80421f32: 06 f4        	sd	ra, 40(sp)
80421f34: 22 f0        	sd	s0, 32(sp)
80421f36: 26 ec        	sd	s1, 24(sp)
80421f38: 4a e8        	sd	s2, 16(sp)
80421f3a: 4e e4        	sd	s3, 8(sp)
80421f3c: 52 e0        	sd	s4, 0(sp)
80421f3e: b6 84        	mv	s1, a3
80421f40: 32 89        	mv	s2, a2
80421f42: 2e 8a        	mv	s4, a1
80421f44: aa 89        	mv	s3, a0
80421f46: 36 85        	mv	a0, a3
80421f48: b2 85        	mv	a1, a2
80421f4a: 97 e0 ff ff  	auipc	ra, 1048574
80421f4e: e7 80 00 58  	jalr	1408(ra)
80421f52: 2a 84        	mv	s0, a0
80421f54: 15 c1        	beqz	a0, 0x80421f78 <.text+0x1f78>
80421f56: 52 86        	mv	a2, s4
80421f58: 63 63 9a 00  	bltu	s4, s1, 0x80421f5e <.text+0x1f5e>
80421f5c: 26 86        	mv	a2, s1
80421f5e: 22 85        	mv	a0, s0
80421f60: ce 85        	mv	a1, s3
80421f62: 97 10 00 00  	auipc	ra, 1
80421f66: e7 80 e0 cb  	jalr	-834(ra)
80421f6a: 4e 85        	mv	a0, s3
80421f6c: d2 85        	mv	a1, s4
80421f6e: 4a 86        	mv	a2, s2
80421f70: 97 e0 ff ff  	auipc	ra, 1048574
80421f74: e7 80 20 73  	jalr	1842(ra)
80421f78: 22 85        	mv	a0, s0
80421f7a: a2 70        	ld	ra, 40(sp)
80421f7c: 02 74        	ld	s0, 32(sp)
80421f7e: e2 64        	ld	s1, 24(sp)
80421f80: 42 69        	ld	s2, 16(sp)
80421f82: a2 69        	ld	s3, 8(sp)
80421f84: 02 6a        	ld	s4, 0(sp)
80421f86: 45 61        	addi	sp, sp, 48
80421f88: 82 80        	ret
80421f8a: 01 11        	addi	sp, sp, -32
80421f8c: 06 ec        	sd	ra, 24(sp)
80421f8e: 22 e8        	sd	s0, 16(sp)
80421f90: 26 e4        	sd	s1, 8(sp)
80421f92: 4a e0        	sd	s2, 0(sp)
80421f94: 2e 89        	mv	s2, a1
80421f96: 2a 84        	mv	s0, a0
80421f98: 1d c2        	beqz	a2, 0x80421fbe <.text+0x1fbe>
80421f9a: b2 84        	mv	s1, a2
80421f9c: 88 6a        	ld	a0, 16(a3)
80421f9e: 15 c5        	beqz	a0, 0x80421fca <.text+0x1fca>
80421fa0: 8c 66        	ld	a1, 8(a3)
80421fa2: 85 c5        	beqz	a1, 0x80421fca <.text+0x1fca>
80421fa4: 88 62        	ld	a0, 0(a3)
80421fa6: 26 86        	mv	a2, s1
80421fa8: ca 86        	mv	a3, s2
80421faa: 97 e0 ff ff  	auipc	ra, 1048574
80421fae: e7 80 00 4b  	jalr	1200(ra)
80421fb2: ca 85        	mv	a1, s2
80421fb4: 15 e1        	bnez	a0, 0x80421fd8 <.text+0x1fd8>
80421fb6: 23 34 24 01  	sd	s2, 8(s0)
80421fba: 04 e8        	sd	s1, 16(s0)
80421fbc: 29 a0        	j	0x80421fc6 <.text+0x1fc6>
80421fbe: 23 34 24 01  	sd	s2, 8(s0)
80421fc2: 23 38 04 00  	sd	zero, 16(s0)
80421fc6: 05 46        	li	a2, 1
80421fc8: 19 a8        	j	0x80421fde <.text+0x1fde>
80421fca: 4a 85        	mv	a0, s2
80421fcc: a6 85        	mv	a1, s1
80421fce: 97 00 00 00  	auipc	ra, 0
80421fd2: e7 80 e0 01  	jalr	30(ra)
80421fd6: 65 d1        	beqz	a0, 0x80421fb6 <.text+0x1fb6>
80421fd8: 01 46        	li	a2, 0
80421fda: 08 e4        	sd	a0, 8(s0)
80421fdc: 0c e8        	sd	a1, 16(s0)
80421fde: 10 e0        	sd	a2, 0(s0)
80421fe0: e2 60        	ld	ra, 24(sp)
80421fe2: 42 64        	ld	s0, 16(sp)
80421fe4: a2 64        	ld	s1, 8(sp)
80421fe6: 02 69        	ld	s2, 0(sp)
80421fe8: 05 61        	addi	sp, sp, 32
80421fea: 82 80        	ret
80421fec: 41 11        	addi	sp, sp, -16
80421fee: 06 e4        	sd	ra, 8(sp)
80421ff0: 22 e0        	sd	s0, 0(sp)
80421ff2: 2a 84        	mv	s0, a0
80421ff4: 19 c5        	beqz	a0, 0x80422002 <.text+0x2002>
80421ff6: 22 85        	mv	a0, s0
80421ff8: 97 e0 ff ff  	auipc	ra, 1048574
80421ffc: e7 80 20 45  	jalr	1106(ra)
80422000: aa 85        	mv	a1, a0
80422002: 2e 85        	mv	a0, a1
80422004: a2 85        	mv	a1, s0
80422006: a2 60        	ld	ra, 8(sp)
80422008: 02 64        	ld	s0, 0(sp)
8042200a: 41 01        	addi	sp, sp, 16
8042200c: 82 80        	ret
8042200e: 7d 56        	li	a2, -1
80422010: 7e 16        	slli	a2, a2, 63
80422012: 05 06        	addi	a2, a2, 1
80422014: 63 93 c5 00  	bne	a1, a2, 0x8042201a <.text+0x201a>
80422018: 82 80        	ret
8042201a: 91 e5        	bnez	a1, 0x80422026 <.text+0x2026>
8042201c: 97 e0 ff ff  	auipc	ra, 1048574
80422020: e7 80 00 45  	jalr	1104(ra)
80422024: 00 00        	unimp	
80422026: 97 e0 ff ff  	auipc	ra, 1048574
8042202a: e7 80 a0 47  	jalr	1146(ra)
8042202e: 00 00        	unimp	
80422030: 5d 71        	addi	sp, sp, -80
80422032: 86 e4        	sd	ra, 72(sp)
80422034: a2 e0        	sd	s0, 64(sp)
80422036: 26 fc        	sd	s1, 56(sp)
80422038: 13 86 15 00  	addi	a2, a1, 1
8042203c: 19 e2        	bnez	a2, 0x80422042 <.text+0x2042>
8042203e: 81 45        	li	a1, 0
80422040: a9 a8        	j	0x8042209a <.text+0x209a>
80422042: 2a 84        	mv	s0, a0
80422044: 08 65        	ld	a0, 8(a0)
80422046: 93 14 15 00  	slli	s1, a0, 1
8042204a: 63 63 96 00  	bltu	a2, s1, 0x80422050 <.text+0x2050>
8042204e: b2 84        	mv	s1, a2
80422050: 91 45        	li	a1, 4
80422052: 63 e3 95 00  	bltu	a1, s1, 0x80422058 <.text+0x2058>
80422056: 91 44        	li	s1, 4
80422058: 93 d5 b4 03  	srli	a1, s1, 59
8042205c: 13 b6 15 00  	seqz	a2, a1
80422060: 93 95 44 00  	slli	a1, s1, 4
80422064: 0e 06        	slli	a2, a2, 3
80422066: 01 c9        	beqz	a0, 0x80422076 <.text+0x2076>
80422068: 14 60        	ld	a3, 0(s0)
8042206a: 12 05        	slli	a0, a0, 4
8042206c: 36 f0        	sd	a3, 32(sp)
8042206e: 2a f4        	sd	a0, 40(sp)
80422070: 21 45        	li	a0, 8
80422072: 2a f8        	sd	a0, 48(sp)
80422074: 11 a0        	j	0x80422078 <.text+0x2078>
80422076: 02 f8        	sd	zero, 48(sp)
80422078: 28 00        	addi	a0, sp, 8
8042207a: 14 10        	addi	a3, sp, 32
8042207c: 97 00 00 00  	auipc	ra, 0
80422080: e7 80 e0 f0  	jalr	-242(ra)
80422084: 22 65        	ld	a0, 8(sp)
80422086: 42 66        	ld	a2, 16(sp)
80422088: 19 c1        	beqz	a0, 0x8042208e <.text+0x208e>
8042208a: e2 65        	ld	a1, 24(sp)
8042208c: 39 a0        	j	0x8042209a <.text+0x209a>
8042208e: 10 e0        	sd	a2, 0(s0)
80422090: 04 e4        	sd	s1, 8(s0)
80422092: 7d 55        	li	a0, -1
80422094: 7e 15        	slli	a0, a0, 63
80422096: 93 05 15 00  	addi	a1, a0, 1
8042209a: 32 85        	mv	a0, a2
8042209c: a6 60        	ld	ra, 72(sp)
8042209e: 06 64        	ld	s0, 64(sp)
804220a0: e2 74        	ld	s1, 56(sp)
804220a2: 61 61        	addi	sp, sp, 80
804220a4: 17 03 00 00  	auipc	t1, 0
804220a8: 67 00 a3 f6  	jr	-150(t1)
804220ac: 75 71        	addi	sp, sp, -144
804220ae: 06 e5        	sd	ra, 136(sp)
804220b0: 0c 69        	ld	a1, 16(a0)
804220b2: 85 e1        	bnez	a1, 0x804220d2 <.text+0x20d2>
804220b4: 17 15 00 00  	auipc	a0, 1
804220b8: 13 05 45 65  	addi	a0, a0, 1620
804220bc: 17 16 00 00  	auipc	a2, 1
804220c0: 13 06 c6 68  	addi	a2, a2, 1676
804220c4: 93 05 b0 02  	li	a1, 43
804220c8: 97 f0 ff ff  	auipc	ra, 1048575
804220cc: e7 80 e0 02  	jalr	46(ra)
804220d0: 00 00        	unimp	
804220d2: 08 6d        	ld	a0, 24(a0)
804220d4: 2e e4        	sd	a1, 8(sp)
804220d6: 0c 61        	ld	a1, 0(a0)
804220d8: 10 65        	ld	a2, 8(a0)
804220da: ae f8        	sd	a1, 112(sp)
804220dc: b2 fc        	sd	a2, 120(sp)
804220de: 08 49        	lw	a0, 16(a0)
804220e0: 2a c3        	sw	a0, 132(sp)
804220e2: 88 18        	addi	a0, sp, 112
804220e4: aa e0        	sd	a0, 64(sp)
804220e6: 17 05 00 00  	auipc	a0, 0
804220ea: 13 05 c5 5e  	addi	a0, a0, 1516
804220ee: aa e4        	sd	a0, 72(sp)
804220f0: 48 01        	addi	a0, sp, 132
804220f2: aa e8        	sd	a0, 80(sp)
804220f4: 17 f5 ff ff  	auipc	a0, 1048575
804220f8: 13 05 45 3f  	addi	a0, a0, 1012
804220fc: aa ec        	sd	a0, 88(sp)
804220fe: 28 00        	addi	a0, sp, 8
80422100: aa f0        	sd	a0, 96(sp)
80422102: 17 05 00 00  	auipc	a0, 0
80422106: 13 05 a5 59  	addi	a0, a0, 1434
8042210a: aa f4        	sd	a0, 104(sp)
8042210c: 17 15 00 00  	auipc	a0, 1
80422110: 13 05 45 66  	addi	a0, a0, 1636
80422114: 2a e8        	sd	a0, 16(sp)
80422116: 11 45        	li	a0, 4
80422118: 2a ec        	sd	a0, 24(sp)
8042211a: 02 f0        	sd	zero, 32(sp)
8042211c: 88 00        	addi	a0, sp, 64
8042211e: 2a f8        	sd	a0, 48(sp)
80422120: 0d 45        	li	a0, 3
80422122: 2a fc        	sd	a0, 56(sp)
80422124: 08 08        	addi	a0, sp, 16
80422126: 97 00 00 00  	auipc	ra, 0
8042212a: e7 80 80 4c  	jalr	1224(ra)
8042212e: 7d 55        	li	a0, -1
80422130: 97 00 00 00  	auipc	ra, 0
80422134: e7 80 20 dd  	jalr	-558(ra)
80422138: 00 00        	unimp	
8042213a: 1d 71        	addi	sp, sp, -96
8042213c: 86 ec        	sd	ra, 88(sp)
8042213e: a2 e8        	sd	s0, 80(sp)
80422140: a6 e4        	sd	s1, 72(sp)
80422142: ca e0        	sd	s2, 64(sp)
80422144: 4e fc        	sd	s3, 56(sp)
80422146: 2a 89        	mv	s2, a0
80422148: 00 6d        	ld	s0, 24(a0)
8042214a: 01 c8        	beqz	s0, 0x8042215a <.text+0x215a>
8042214c: b3 04 84 00  	add	s1, s0, s0
80422150: 63 fb 84 00  	bgeu	s1, s0, 0x80422166 <.text+0x2166>
80422154: 81 45        	li	a1, 0
80422156: a2 89        	mv	s3, s0
80422158: b9 a0        	j	0x804221a6 <.text+0x21a6>
8042215a: 81 49        	li	s3, 0
8042215c: 7d 55        	li	a0, -1
8042215e: 7e 15        	slli	a0, a0, 63
80422160: 93 05 15 00  	addi	a1, a0, 1
80422164: 89 a0        	j	0x804221a6 <.text+0x21a6>
80422166: 03 35 09 01  	ld	a0, 16(s2)
8042216a: 93 c5 f4 ff  	not	a1, s1
8042216e: 13 d6 f5 03  	srli	a2, a1, 63
80422172: 2a f0        	sd	a0, 32(sp)
80422174: 22 f4        	sd	s0, 40(sp)
80422176: 05 45        	li	a0, 1
80422178: 2a f8        	sd	a0, 48(sp)
8042217a: 28 00        	addi	a0, sp, 8
8042217c: 14 10        	addi	a3, sp, 32
8042217e: a6 85        	mv	a1, s1
80422180: 97 00 00 00  	auipc	ra, 0
80422184: e7 80 a0 e0  	jalr	-502(ra)
80422188: a2 65        	ld	a1, 8(sp)
8042218a: 42 65        	ld	a0, 16(sp)
8042218c: 89 c5        	beqz	a1, 0x80422196 <.text+0x2196>
8042218e: e2 65        	ld	a1, 24(sp)
80422190: a2 89        	mv	s3, s0
80422192: aa 84        	mv	s1, a0
80422194: 09 a8        	j	0x804221a6 <.text+0x21a6>
80422196: ca 85        	mv	a1, s2
80422198: 88 e9        	sd	a0, 16(a1)
8042219a: 84 ed        	sd	s1, 24(a1)
8042219c: 7d 55        	li	a0, -1
8042219e: 7e 15        	slli	a0, a0, 63
804221a0: 93 05 15 00  	addi	a1, a0, 1
804221a4: a6 89        	mv	s3, s1
804221a6: 26 85        	mv	a0, s1
804221a8: 97 00 00 00  	auipc	ra, 0
804221ac: e7 80 60 e6  	jalr	-410(ra)
804221b0: 13 15 14 00  	slli	a0, s0, 1
804221b4: 63 9d a9 04  	bne	s3, a0, 0x8042220e <.text+0x220e>
804221b8: ca 85        	mv	a1, s2
804221ba: 88 61        	ld	a0, 0(a1)
804221bc: 84 65        	ld	s1, 8(a1)
804221be: 63 f1 a4 04  	bgeu	s1, a0, 0x80422200 <.text+0x2200>
804221c2: 33 06 a4 40  	sub	a2, s0, a0
804221c6: 63 f0 c4 02  	bgeu	s1, a2, 0x804221e6 <.text+0x21e6>
804221ca: 83 35 09 01  	ld	a1, 16(s2)
804221ce: 33 85 85 00  	add	a0, a1, s0
804221d2: 26 86        	mv	a2, s1
804221d4: 97 10 00 00  	auipc	ra, 1
804221d8: e7 80 c0 a4  	jalr	-1460(ra)
804221dc: 33 85 84 00  	add	a0, s1, s0
804221e0: 23 34 a9 00  	sd	a0, 8(s2)
804221e4: 31 a8        	j	0x80422200 <.text+0x2200>
804221e6: ca 84        	mv	s1, s2
804221e8: 94 68        	ld	a3, 16(s1)
804221ea: 33 84 c9 40  	sub	s0, s3, a2
804221ee: b3 85 a6 00  	add	a1, a3, a0
804221f2: 33 85 86 00  	add	a0, a3, s0
804221f6: 97 10 00 00  	auipc	ra, 1
804221fa: e7 80 a0 a2  	jalr	-1494(ra)
804221fe: 80 e0        	sd	s0, 0(s1)
80422200: e6 60        	ld	ra, 88(sp)
80422202: 46 64        	ld	s0, 80(sp)
80422204: a6 64        	ld	s1, 72(sp)
80422206: 06 69        	ld	s2, 64(sp)
80422208: e2 79        	ld	s3, 56(sp)
8042220a: 25 61        	addi	sp, sp, 96
8042220c: 82 80        	ret
8042220e: 17 15 00 00  	auipc	a0, 1
80422212: 13 05 05 60  	addi	a0, a0, 1536
80422216: 17 16 00 00  	auipc	a2, 1
8042221a: 13 06 a6 62  	addi	a2, a2, 1578
8042221e: 93 05 b0 02  	li	a1, 43
80422222: 97 f0 ff ff  	auipc	ra, 1048575
80422226: e7 80 40 ed  	jalr	-300(ra)
8042222a: 00 00        	unimp	
8042222c: 79 71        	addi	sp, sp, -48
8042222e: 06 f4        	sd	ra, 40(sp)
80422230: 22 f0        	sd	s0, 32(sp)
80422232: 94 65        	ld	a3, 8(a1)
80422234: 98 61        	ld	a4, 0(a1)
80422236: 9c 69        	ld	a5, 16(a1)
80422238: 90 6d        	ld	a2, 24(a1)
8042223a: 2a 84        	mv	s0, a0
8042223c: 0a 85        	mv	a0, sp
8042223e: be 85        	mv	a1, a5
80422240: 97 00 00 00  	auipc	ra, 0
80422244: e7 80 e0 63  	jalr	1598(ra)
80422248: 02 65        	ld	a0, 0(sp)
8042224a: a2 65        	ld	a1, 8(sp)
8042224c: 42 66        	ld	a2, 16(sp)
8042224e: e2 66        	ld	a3, 24(sp)
80422250: 08 e0        	sd	a0, 0(s0)
80422252: 0c e4        	sd	a1, 8(s0)
80422254: 10 e8        	sd	a2, 16(s0)
80422256: 14 ec        	sd	a3, 24(s0)
80422258: a2 70        	ld	ra, 40(sp)
8042225a: 02 74        	ld	s0, 32(sp)
8042225c: 45 61        	addi	sp, sp, 48
8042225e: 82 80        	ret
80422260: 79 71        	addi	sp, sp, -48
80422262: 01 25        	sext.w	a0, a0
80422264: 93 08 d0 05  	li	a7, 93
80422268: 81 45        	li	a1, 0
8042226a: 01 46        	li	a2, 0
8042226c: 73 00 00 00  	ecall	
80422270: 17 15 00 00  	auipc	a0, 1
80422274: 13 05 05 60  	addi	a0, a0, 1536
80422278: 2a e0        	sd	a0, 0(sp)
8042227a: 05 45        	li	a0, 1
8042227c: 2a e4        	sd	a0, 8(sp)
8042227e: 02 e8        	sd	zero, 16(sp)
80422280: 17 15 00 00  	auipc	a0, 1
80422284: 13 05 85 5d  	addi	a0, a0, 1496
80422288: 2a f0        	sd	a0, 32(sp)
8042228a: 02 f4        	sd	zero, 40(sp)
8042228c: 97 15 00 00  	auipc	a1, 1
80422290: 93 85 45 60  	addi	a1, a1, 1540
80422294: 0a 85        	mv	a0, sp
80422296: 97 e0 ff ff  	auipc	ra, 1048574
8042229a: e7 80 e0 5b  	jalr	1470(ra)
8042229e: 00 00        	unimp	
804222a0: 5d 71        	addi	sp, sp, -80
804222a2: 86 e4        	sd	ra, 72(sp)
804222a4: a2 e0        	sd	s0, 64(sp)
804222a6: 26 fc        	sd	s1, 56(sp)
804222a8: 4a f8        	sd	s2, 48(sp)
804222aa: 4e f4        	sd	s3, 40(sp)
804222ac: 52 f0        	sd	s4, 32(sp)
804222ae: 56 ec        	sd	s5, 24(sp)
804222b0: 5a e8        	sd	s6, 16(sp)
804222b2: 5e e4        	sd	s7, 8(sp)
804222b4: 32 89        	mv	s2, a2
804222b6: ae 84        	mv	s1, a1
804222b8: 2a 84        	mv	s0, a0
804222ba: 85 49        	li	s3, 1
804222bc: 29 4a        	li	s4, 10
804222be: fd 5a        	li	s5, -1
804222c0: 05 65        	lui	a0, 1
804222c2: 1b 0b 05 a0  	addiw	s6, a0, -1536
804222c6: 63 07 09 06  	beqz	s2, 0x80422334 <.text+0x2334>
804222ca: 10 60        	ld	a2, 0(s0)
804222cc: 0c 64        	ld	a1, 8(s0)
804222ce: 08 6c        	ld	a0, 24(s0)
804222d0: 83 cb 04 00  	lbu	s7, 0(s1)
804222d4: b3 86 c5 40  	sub	a3, a1, a2
804222d8: 13 06 f5 ff  	addi	a2, a0, -1
804222dc: f1 8e        	and	a3, a3, a2
804222de: b3 06 d5 40  	sub	a3, a0, a3
804222e2: 63 9b 36 01  	bne	a3, s3, 0x804222f8 <.text+0x22f8>
804222e6: 22 85        	mv	a0, s0
804222e8: 97 00 00 00  	auipc	ra, 0
804222ec: e7 80 20 e5  	jalr	-430(ra)
804222f0: 08 6c        	ld	a0, 24(s0)
804222f2: 0c 64        	ld	a1, 8(s0)
804222f4: 13 06 f5 ff  	addi	a2, a0, -1
804222f8: 14 68        	ld	a3, 16(s0)
804222fa: 13 87 15 00  	addi	a4, a1, 1
804222fe: 79 8e        	and	a2, a2, a4
80422300: 10 e4        	sd	a2, 8(s0)
80422302: b6 95        	add	a1, a1, a3
80422304: 23 80 75 01  	sb	s7, 0(a1)
80422308: 83 c5 04 00  	lbu	a1, 0(s1)
8042230c: 63 89 45 01  	beq	a1, s4, 0x8042231e <.text+0x231e>
80422310: 0c 60        	ld	a1, 0(s0)
80422312: b3 05 b6 40  	sub	a1, a2, a1
80422316: 7d 15        	addi	a0, a0, -1
80422318: 6d 8d        	and	a0, a0, a1
8042231a: 63 19 65 01  	bne	a0, s6, 0x8042232c <.text+0x232c>
8042231e: 22 85        	mv	a0, s0
80422320: 97 00 00 00  	auipc	ra, 0
80422324: e7 80 e0 02  	jalr	46(ra)
80422328: 63 06 55 01  	beq	a0, s5, 0x80422334 <.text+0x2334>
8042232c: 85 04        	addi	s1, s1, 1
8042232e: 7d 19        	addi	s2, s2, -1
80422330: e3 1d 09 f8  	bnez	s2, 0x804222ca <.text+0x22ca>
80422334: 33 35 20 01  	snez	a0, s2
80422338: a6 60        	ld	ra, 72(sp)
8042233a: 06 64        	ld	s0, 64(sp)
8042233c: e2 74        	ld	s1, 56(sp)
8042233e: 42 79        	ld	s2, 48(sp)
80422340: a2 79        	ld	s3, 40(sp)
80422342: 02 7a        	ld	s4, 32(sp)
80422344: e2 6a        	ld	s5, 24(sp)
80422346: 42 6b        	ld	s6, 16(sp)
80422348: a2 6b        	ld	s7, 8(sp)
8042234a: 61 61        	addi	sp, sp, 80
8042234c: 82 80        	ret
8042234e: 59 71        	addi	sp, sp, -112
80422350: 86 f4        	sd	ra, 104(sp)
80422352: a2 f0        	sd	s0, 96(sp)
80422354: a6 ec        	sd	s1, 88(sp)
80422356: ca e8        	sd	s2, 80(sp)
80422358: ce e4        	sd	s3, 72(sp)
8042235a: d2 e0        	sd	s4, 64(sp)
8042235c: 56 fc        	sd	s5, 56(sp)
8042235e: 5a f8        	sd	s6, 48(sp)
80422360: 5e f4        	sd	s7, 40(sp)
80422362: 62 f0        	sd	s8, 32(sp)
80422364: 2a 89        	mv	s2, a0
80422366: 00 61        	ld	s0, 0(a0)
80422368: 03 3a 85 00  	ld	s4, 8(a0)
8042236c: 63 7d 8a 04  	bgeu	s4, s0, 0x804223c6 <.text+0x23c6>
80422370: 83 3a 89 01  	ld	s5, 24(s2)
80422374: 03 3c 09 01  	ld	s8, 16(s2)
80422378: b3 05 8a 40  	sub	a1, s4, s0
8042237c: 93 8b fa ff  	addi	s7, s5, -1
80422380: 33 05 44 41  	sub	a0, s0, s4
80422384: 33 8b 8a 40  	sub	s6, s5, s0
80422388: b3 f9 bb 00  	and	s3, s7, a1
8042238c: 63 7d 65 05  	bgeu	a0, s6, 0x804223e6 <.text+0x23e6>
80422390: 63 70 aa 0e  	bgeu	s4, a0, 0x80422470 <.text+0x2470>
80422394: b3 05 8c 00  	add	a1, s8, s0
80422398: 33 05 4c 01  	add	a0, s8, s4
8042239c: 5a 86        	mv	a2, s6
8042239e: 97 10 00 00  	auipc	ra, 1
804223a2: e7 80 a0 87  	jalr	-1926(ra)
804223a6: 33 05 4b 01  	add	a0, s6, s4
804223aa: 62 95        	add	a0, a0, s8
804223ac: e2 85        	mv	a1, s8
804223ae: 52 86        	mv	a2, s4
804223b0: 97 10 00 00  	auipc	ra, 1
804223b4: e7 80 00 87  	jalr	-1936(ra)
804223b8: 23 30 49 01  	sd	s4, 0(s2)
804223bc: 33 85 49 01  	add	a0, s3, s4
804223c0: b3 79 75 01  	and	s3, a0, s7
804223c4: a1 a0        	j	0x8042240c <.text+0x240c>
804223c6: 4a 85        	mv	a0, s2
804223c8: 0c 69        	ld	a1, 16(a0)
804223ca: 04 6d        	ld	s1, 24(a0)
804223cc: 0a 85        	mv	a0, sp
804223ce: 26 86        	mv	a2, s1
804223d0: d2 86        	mv	a3, s4
804223d2: 22 87        	mv	a4, s0
804223d4: 97 00 00 00  	auipc	ra, 0
804223d8: e7 80 a0 4a  	jalr	1194(ra)
804223dc: 82 65        	ld	a1, 0(sp)
804223de: 22 66        	ld	a2, 8(sp)
804223e0: 93 8b f4 ff  	addi	s7, s1, -1
804223e4: 99 a0        	j	0x8042242a <.text+0x242a>
804223e6: 33 05 6c 01  	add	a0, s8, s6
804223ea: e2 85        	mv	a1, s8
804223ec: 52 86        	mv	a2, s4
804223ee: 97 10 00 00  	auipc	ra, 1
804223f2: e7 80 a0 82  	jalr	-2006(ra)
804223f6: b3 05 8c 00  	add	a1, s8, s0
804223fa: 62 85        	mv	a0, s8
804223fc: 5a 86        	mv	a2, s6
804223fe: 97 10 00 00  	auipc	ra, 1
80422402: e7 80 20 82  	jalr	-2014(ra)
80422406: 01 4a        	li	s4, 0
80422408: 23 30 09 00  	sd	zero, 0(s2)
8042240c: 23 34 39 01  	sd	s3, 8(s2)
80422410: 0a 85        	mv	a0, sp
80422412: e2 85        	mv	a1, s8
80422414: 56 86        	mv	a2, s5
80422416: ce 86        	mv	a3, s3
80422418: 52 87        	mv	a4, s4
8042241a: 97 00 00 00  	auipc	ra, 0
8042241e: e7 80 40 46  	jalr	1124(ra)
80422422: 82 65        	ld	a1, 0(sp)
80422424: 22 66        	ld	a2, 8(sp)
80422426: 52 84        	mv	s0, s4
80422428: 4e 8a        	mv	s4, s3
8042242a: 93 08 00 04  	li	a7, 64
8042242e: 05 45        	li	a0, 1
80422430: 73 00 00 00  	ecall	
80422434: aa 84        	mv	s1, a0
80422436: 33 05 8a 40  	sub	a0, s4, s0
8042243a: 33 f4 ab 00  	and	s0, s7, a0
8042243e: 0a 85        	mv	a0, sp
80422440: ca 85        	mv	a1, s2
80422442: 97 00 00 00  	auipc	ra, 0
80422446: e7 80 a0 de  	jalr	-534(ra)
8042244a: 33 05 8a 40  	sub	a0, s4, s0
8042244e: 33 75 75 01  	and	a0, a0, s7
80422452: 23 34 a9 00  	sd	a0, 8(s2)
80422456: 26 85        	mv	a0, s1
80422458: a6 70        	ld	ra, 104(sp)
8042245a: 06 74        	ld	s0, 96(sp)
8042245c: e6 64        	ld	s1, 88(sp)
8042245e: 46 69        	ld	s2, 80(sp)
80422460: a6 69        	ld	s3, 72(sp)
80422462: 06 6a        	ld	s4, 64(sp)
80422464: e2 7a        	ld	s5, 56(sp)
80422466: 42 7b        	ld	s6, 48(sp)
80422468: a2 7b        	ld	s7, 40(sp)
8042246a: 02 7c        	ld	s8, 32(sp)
8042246c: 65 61        	addi	sp, sp, 112
8042246e: 82 80        	ret
80422470: 01 46        	li	a2, 0
80422472: b3 35 36 01  	sltu	a1, a2, s3
80422476: b3 c6 8a 00  	xor	a3, s5, s0
8042247a: b3 36 d0 00  	snez	a3, a3
8042247e: f5 8d        	and	a1, a1, a3
80422480: d9 d1        	beqz	a1, 0x80422406 <.text+0x2406>
80422482: 22 88        	mv	a6, s0
80422484: b3 06 c4 40  	sub	a3, s0, a2
80422488: 81 48        	li	a7, 0
8042248a: 63 63 d4 00  	bltu	s0, a3, 0x80422490 <.text+0x2490>
8042248e: b6 88        	mv	a7, a3
80422490: 81 46        	li	a3, 0
80422492: 01 47        	li	a4, 0
80422494: b3 87 0a 41  	sub	a5, s5, a6
80422498: 62 96        	add	a2, a2, s8
8042249a: 63 84 d8 02  	beq	a7, a3, 0x804224c2 <.text+0x24c2>
8042249e: 33 f7 f6 02  	remu	a4, a3, a5
804224a2: 33 04 07 01  	add	s0, a4, a6
804224a6: b3 04 d6 00  	add	s1, a2, a3
804224aa: 62 94        	add	s0, s0, s8
804224ac: 03 05 04 00  	lb	a0, 0(s0)
804224b0: 83 85 04 00  	lb	a1, 0(s1)
804224b4: 23 80 a4 00  	sb	a0, 0(s1)
804224b8: 23 00 b4 00  	sb	a1, 0(s0)
804224bc: 85 06        	addi	a3, a3, 1
804224be: e3 90 d8 fe  	bne	a7, a3, 0x8042249e <.text+0x249e>
804224c2: b3 05 e8 00  	add	a1, a6, a4
804224c6: 13 84 15 00  	addi	s0, a1, 1
804224ca: 42 86        	mv	a2, a6
804224cc: 5d b7        	j	0x80422472 <.text+0x2472>
804224ce: 39 71        	addi	sp, sp, -64
804224d0: 06 fc        	sd	ra, 56(sp)
804224d2: 2a e0        	sd	a0, 0(sp)
804224d4: 28 00        	addi	a0, sp, 8
804224d6: 13 06 00 03  	li	a2, 48
804224da: 97 00 00 00  	auipc	ra, 0
804224de: e7 80 60 74  	jalr	1862(ra)
804224e2: 97 15 00 00  	auipc	a1, 1
804224e6: 93 85 65 3c  	addi	a1, a1, 966
804224ea: 0a 85        	mv	a0, sp
804224ec: 30 00        	addi	a2, sp, 8
804224ee: 97 f0 ff ff  	auipc	ra, 1048575
804224f2: e7 80 c0 c4  	jalr	-948(ra)
804224f6: e2 70        	ld	ra, 56(sp)
804224f8: 21 61        	addi	sp, sp, 64
804224fa: 82 80        	ret
804224fc: 08 61        	ld	a0, 0(a0)
804224fe: 17 03 00 00  	auipc	t1, 0
80422502: 67 00 23 da  	jr	-606(t1)
80422506: 41 11        	addi	sp, sp, -16
80422508: 06 e4        	sd	ra, 8(sp)
8042250a: 08 61        	ld	a0, 0(a0)
8042250c: 1b 86 05 00  	sext.w	a2, a1
80422510: 93 06 00 08  	li	a3, 128
80422514: 02 c2        	sw	zero, 4(sp)
80422516: 63 76 d6 00  	bgeu	a2, a3, 0x80422522 <.text+0x2522>
8042251a: 23 02 b1 00  	sb	a1, 4(sp)
8042251e: 05 46        	li	a2, 1
80422520: 51 a8        	j	0x804225b4 <.text+0x25b4>
80422522: 1b d6 b5 00  	srliw	a2, a1, 11
80422526: 19 ee        	bnez	a2, 0x80422544 <.text+0x2544>
80422528: 13 d6 65 00  	srli	a2, a1, 6
8042252c: 13 66 06 0c  	ori	a2, a2, 192
80422530: 23 02 c1 00  	sb	a2, 4(sp)
80422534: 93 f5 f5 03  	andi	a1, a1, 63
80422538: 93 e5 05 08  	ori	a1, a1, 128
8042253c: a3 02 b1 00  	sb	a1, 5(sp)
80422540: 09 46        	li	a2, 2
80422542: 8d a8        	j	0x804225b4 <.text+0x25b4>
80422544: 1b d6 05 01  	srliw	a2, a1, 16
80422548: 05 ea        	bnez	a2, 0x80422578 <.text+0x2578>
8042254a: 13 96 05 02  	slli	a2, a1, 32
8042254e: 01 92        	srli	a2, a2, 32
80422550: 9b d6 c5 00  	srliw	a3, a1, 12
80422554: 93 e6 06 0e  	ori	a3, a3, 224
80422558: 23 02 d1 00  	sb	a3, 4(sp)
8042255c: 52 16        	slli	a2, a2, 52
8042255e: 69 92        	srli	a2, a2, 58
80422560: 13 66 06 08  	ori	a2, a2, 128
80422564: a3 02 c1 00  	sb	a2, 5(sp)
80422568: 93 f5 f5 03  	andi	a1, a1, 63
8042256c: 93 e5 05 08  	ori	a1, a1, 128
80422570: 23 03 b1 00  	sb	a1, 6(sp)
80422574: 0d 46        	li	a2, 3
80422576: 3d a8        	j	0x804225b4 <.text+0x25b4>
80422578: 13 96 05 02  	slli	a2, a1, 32
8042257c: 01 92        	srli	a2, a2, 32
8042257e: 93 16 b6 02  	slli	a3, a2, 43
80422582: f5 92        	srli	a3, a3, 61
80422584: 93 e6 06 0f  	ori	a3, a3, 240
80422588: 23 02 d1 00  	sb	a3, 4(sp)
8042258c: 93 16 e6 02  	slli	a3, a2, 46
80422590: e9 92        	srli	a3, a3, 58
80422592: 93 e6 06 08  	ori	a3, a3, 128
80422596: a3 02 d1 00  	sb	a3, 5(sp)
8042259a: 52 16        	slli	a2, a2, 52
8042259c: 69 92        	srli	a2, a2, 58
8042259e: 13 66 06 08  	ori	a2, a2, 128
804225a2: 23 03 c1 00  	sb	a2, 6(sp)
804225a6: 93 f5 f5 03  	andi	a1, a1, 63
804225aa: 93 e5 05 08  	ori	a1, a1, 128
804225ae: a3 03 b1 00  	sb	a1, 7(sp)
804225b2: 11 46        	li	a2, 4
804225b4: 4c 00        	addi	a1, sp, 4
804225b6: 97 00 00 00  	auipc	ra, 0
804225ba: e7 80 a0 ce  	jalr	-790(ra)
804225be: a2 60        	ld	ra, 8(sp)
804225c0: 41 01        	addi	sp, sp, 16
804225c2: 82 80        	ret
804225c4: 39 71        	addi	sp, sp, -64
804225c6: 06 fc        	sd	ra, 56(sp)
804225c8: 22 f8        	sd	s0, 48(sp)
804225ca: 00 61        	ld	s0, 0(a0)
804225cc: 0a 85        	mv	a0, sp
804225ce: 13 06 00 03  	li	a2, 48
804225d2: 97 00 00 00  	auipc	ra, 0
804225d6: e7 80 e0 64  	jalr	1614(ra)
804225da: 8a 85        	mv	a1, sp
804225dc: 22 85        	mv	a0, s0
804225de: 97 00 00 00  	auipc	ra, 0
804225e2: e7 80 00 ef  	jalr	-272(ra)
804225e6: e2 70        	ld	ra, 56(sp)
804225e8: 42 74        	ld	s0, 48(sp)
804225ea: 21 61        	addi	sp, sp, 64
804225ec: 82 80        	ret
804225ee: 5d 71        	addi	sp, sp, -80
804225f0: 86 e4        	sd	ra, 72(sp)
804225f2: a2 e0        	sd	s0, 64(sp)
804225f4: 26 fc        	sd	s1, 56(sp)
804225f6: 4a f8        	sd	s2, 48(sp)
804225f8: 2a 89        	mv	s2, a0
804225fa: 97 00 00 00  	auipc	ra, 0
804225fe: e7 80 00 15  	jalr	336(ra)
80422602: 97 02 00 00  	auipc	t0, 0
80422606: e7 82 c2 32  	jalr	t0, 812(t0)
8042260a: 97 02 00 00  	auipc	t0, 0
8042260e: e7 82 e2 34  	jalr	t0, 846(t0)
80422612: 19 c7        	beqz	a4, 0x80422620 <.text+0x2620>
80422614: 03 07 05 00  	lb	a4, 0(a0)
80422618: 6d db        	beqz	a4, 0x8042260a <.text+0x260a>
8042261a: 0f 00 00 01  	fence	w, 0
8042261e: dd bf        	j	0x80422614 <.text+0x2614>
80422620: 93 04 84 01  	addi	s1, s0, 24
80422624: 0a 85        	mv	a0, sp
80422626: 13 06 00 03  	li	a2, 48
8042262a: ca 85        	mv	a1, s2
8042262c: 97 00 00 00  	auipc	ra, 0
80422630: e7 80 40 5f  	jalr	1524(ra)
80422634: 8a 85        	mv	a1, sp
80422636: 26 85        	mv	a0, s1
80422638: 97 00 00 00  	auipc	ra, 0
8042263c: e7 80 60 e9  	jalr	-362(ra)
80422640: 0f 00 10 03  	fence	rw, w
80422644: 23 08 04 00  	sb	zero, 16(s0)
80422648: a6 60        	ld	ra, 72(sp)
8042264a: 06 64        	ld	s0, 64(sp)
8042264c: e2 74        	ld	s1, 56(sp)
8042264e: 42 79        	ld	s2, 48(sp)
80422650: 61 61        	addi	sp, sp, 80
80422652: 82 80        	ret
80422654: 41 11        	addi	sp, sp, -16
80422656: 06 e4        	sd	ra, 8(sp)
80422658: 22 e0        	sd	s0, 0(sp)
8042265a: 97 00 00 00  	auipc	ra, 0
8042265e: e7 80 00 0f  	jalr	240(ra)
80422662: 97 02 00 00  	auipc	t0, 0
80422666: e7 82 c2 2c  	jalr	t0, 716(t0)
8042266a: 97 02 00 00  	auipc	t0, 0
8042266e: e7 82 e2 2e  	jalr	t0, 750(t0)
80422672: 19 c7        	beqz	a4, 0x80422680 <.text+0x2680>
80422674: 03 07 05 00  	lb	a4, 0(a0)
80422678: 6d db        	beqz	a4, 0x8042266a <.text+0x266a>
8042267a: 0f 00 00 01  	fence	w, 0
8042267e: dd bf        	j	0x80422674 <.text+0x2674>
80422680: 13 05 84 01  	addi	a0, s0, 24
80422684: 97 00 00 00  	auipc	ra, 0
80422688: e7 80 a0 cc  	jalr	-822(ra)
8042268c: 0f 00 10 03  	fence	rw, w
80422690: 23 08 04 00  	sb	zero, 16(s0)
80422694: a2 60        	ld	ra, 8(sp)
80422696: 02 64        	ld	s0, 0(sp)
80422698: 41 01        	addi	sp, sp, 16
8042269a: 82 80        	ret
8042269c: 5d 71        	addi	sp, sp, -80
8042269e: 86 e4        	sd	ra, 72(sp)
804226a0: a2 e0        	sd	s0, 64(sp)
804226a2: 26 fc        	sd	s1, 56(sp)
804226a4: 14 61        	ld	a3, 0(a0)
804226a6: 80 71        	ld	s0, 32(a1)
804226a8: 84 75        	ld	s1, 40(a1)
804226aa: 28 00        	addi	a0, sp, 8
804226ac: 13 06 00 03  	li	a2, 48
804226b0: b6 85        	mv	a1, a3
804226b2: 97 00 00 00  	auipc	ra, 0
804226b6: e7 80 e0 56  	jalr	1390(ra)
804226ba: 30 00        	addi	a2, sp, 8
804226bc: 22 85        	mv	a0, s0
804226be: a6 85        	mv	a1, s1
804226c0: 97 f0 ff ff  	auipc	ra, 1048575
804226c4: e7 80 a0 a7  	jalr	-1414(ra)
804226c8: a6 60        	ld	ra, 72(sp)
804226ca: 06 64        	ld	s0, 64(sp)
804226cc: e2 74        	ld	s1, 56(sp)
804226ce: 61 61        	addi	sp, sp, 80
804226d0: 82 80        	ret
804226d2: 14 61        	ld	a3, 0(a0)
804226d4: 10 65        	ld	a2, 8(a0)
804226d6: 2e 85        	mv	a0, a1
804226d8: b6 85        	mv	a1, a3
804226da: 17 e3 ff ff  	auipc	t1, 1048574
804226de: 67 00 03 64  	jr	1600(t1)
804226e2: 79 71        	addi	sp, sp, -48
804226e4: 06 f4        	sd	ra, 40(sp)
804226e6: 22 f0        	sd	s0, 32(sp)
804226e8: 17 65 00 00  	auipc	a0, 6
804226ec: 13 05 05 b0  	addi	a0, a0, -1280
804226f0: 00 65        	ld	s0, 8(a0)
804226f2: 93 05 84 01  	addi	a1, s0, 24
804226f6: 0a 85        	mv	a0, sp
804226f8: 97 00 00 00  	auipc	ra, 0
804226fc: e7 80 40 b3  	jalr	-1228(ra)
80422700: 0c 78        	ld	a1, 48(s0)
80422702: 99 c5        	beqz	a1, 0x80422710 <.text+0x2710>
80422704: 08 74        	ld	a0, 40(s0)
80422706: 05 46        	li	a2, 1
80422708: 97 e0 ff ff  	auipc	ra, 1048574
8042270c: e7 80 a0 d4  	jalr	-694(ra)
80422710: 7d 55        	li	a0, -1
80422712: 63 08 a4 02  	beq	s0, a0, 0x80422742 <.text+0x2742>
80422716: 13 05 84 00  	addi	a0, s0, 8
8042271a: 85 45        	li	a1, 1
8042271c: 33 06 b0 40  	neg	a2, a1
80422720: 2f 35 c5 02  	amoadd.d.rl	a0, a2, (a0)
80422724: 63 1f b5 00  	bne	a0, a1, 0x80422742 <.text+0x2742>
80422728: 93 05 80 03  	li	a1, 56
8042272c: 21 46        	li	a2, 8
8042272e: 0f 00 30 02  	fence	r, rw
80422732: 22 85        	mv	a0, s0
80422734: a2 70        	ld	ra, 40(sp)
80422736: 02 74        	ld	s0, 32(sp)
80422738: 45 61        	addi	sp, sp, 48
8042273a: 17 e3 ff ff  	auipc	t1, 1048574
8042273e: 67 00 83 d1  	jr	-744(t1)
80422742: a2 70        	ld	ra, 40(sp)
80422744: 02 74        	ld	s0, 32(sp)
80422746: 45 61        	addi	sp, sp, 48
80422748: 82 80        	ret
8042274a: 1d 71        	addi	sp, sp, -96
8042274c: 86 ec        	sd	ra, 88(sp)
8042274e: a2 e8        	sd	s0, 80(sp)
80422750: a6 e4        	sd	s1, 72(sp)
80422752: ca e0        	sd	s2, 64(sp)
80422754: 4e fc        	sd	s3, 56(sp)
80422756: 0f 00 30 03  	fence	rw, rw
8042275a: 17 64 00 00  	auipc	s0, 6
8042275e: 13 04 e4 a8  	addi	s0, s0, -1394
80422762: 08 60        	ld	a0, 0(s0)
80422764: 0f 00 30 02  	fence	r, rw
80422768: 45 e1        	bnez	a0, 0x80422808 <.text+0x2808>
8042276a: 85 45        	li	a1, 1
8042276c: 2f 35 04 16  	lr.d.aqrl	a0, (s0)
80422770: 01 e5        	bnez	a0, 0x80422778 <.text+0x2778>
80422772: 2f 36 b4 1e  	sc.d.aqrl	a2, a1, (s0)
80422776: 7d fa        	bnez	a2, 0x8042276c <.text+0x276c>
80422778: 41 e9        	bnez	a0, 0x80422808 <.text+0x2808>
8042277a: 05 65        	lui	a0, 1
8042277c: 85 45        	li	a1, 1
8042277e: 97 00 00 00  	auipc	ra, 0
80422782: e7 80 e0 86  	jalr	-1938(ra)
80422786: 6d c1        	beqz	a0, 0x80422868 <.text+0x2868>
80422788: 2a 89        	mv	s2, a0
8042278a: 28 10        	addi	a0, sp, 40
8042278c: 41 46        	li	a2, 16
8042278e: 81 45        	li	a1, 0
80422790: 97 00 00 00  	auipc	ra, 0
80422794: e7 80 60 1e  	jalr	486(ra)
80422798: 13 05 a1 00  	addi	a0, sp, 10
8042279c: 93 05 11 02  	addi	a1, sp, 33
804227a0: 5d 46        	li	a2, 23
804227a2: 97 00 00 00  	auipc	ra, 0
804227a6: e7 80 e0 47  	jalr	1150(ra)
804227aa: 13 05 80 03  	li	a0, 56
804227ae: a1 45        	li	a1, 8
804227b0: 97 e0 ff ff  	auipc	ra, 1048574
804227b4: e7 80 a0 c9  	jalr	-870(ra)
804227b8: 5d c9        	beqz	a0, 0x8042286e <.text+0x286e>
804227ba: aa 84        	mv	s1, a0
804227bc: 85 49        	li	s3, 1
804227be: ce 85        	mv	a1, s3
804227c0: 0c e1        	sd	a1, 0(a0)
804227c2: 0c e5        	sd	a1, 8(a0)
804227c4: 23 08 05 00  	sb	zero, 16(a0)
804227c8: 45 05        	addi	a0, a0, 17
804227ca: 93 05 a1 00  	addi	a1, sp, 10
804227ce: 5d 46        	li	a2, 23
804227d0: 97 00 00 00  	auipc	ra, 0
804227d4: e7 80 00 45  	jalr	1104(ra)
804227d8: 23 b4 24 03  	sd	s2, 40(s1)
804227dc: 05 65        	lui	a0, 1
804227de: 88 f8        	sd	a0, 48(s1)
804227e0: 08 64        	ld	a0, 8(s0)
804227e2: 09 cd        	beqz	a0, 0x804227fc <.text+0x27fc>
804227e4: b3 05 30 41  	neg	a1, s3
804227e8: 2f 35 b5 02  	amoadd.d.rl	a0, a1, (a0)
804227ec: 63 18 35 01  	bne	a0, s3, 0x804227fc <.text+0x27fc>
804227f0: 0f 00 30 02  	fence	r, rw
804227f4: 97 00 00 00  	auipc	ra, 0
804227f8: e7 80 e0 ee  	jalr	-274(ra)
804227fc: 04 e4        	sd	s1, 8(s0)
804227fe: 0f 00 10 03  	fence	rw, w
80422802: 09 45        	li	a0, 2
80422804: 08 e0        	sd	a0, 0(s0)
80422806: 05 a0        	j	0x80422826 <.text+0x2826>
80422808: 85 45        	li	a1, 1
8042280a: 63 1b b5 00  	bne	a0, a1, 0x80422820 <.text+0x2820>
8042280e: 0f 00 00 01  	fence	w, 0
80422812: 0f 00 30 03  	fence	rw, rw
80422816: 08 60        	ld	a0, 0(s0)
80422818: 0f 00 30 02  	fence	r, rw
8042281c: e3 09 b5 fe  	beq	a0, a1, 0x8042280e <.text+0x280e>
80422820: 89 45        	li	a1, 2
80422822: 63 19 b5 00  	bne	a0, a1, 0x80422834 <.text+0x2834>
80422826: e6 60        	ld	ra, 88(sp)
80422828: 46 64        	ld	s0, 80(sp)
8042282a: a6 64        	ld	s1, 72(sp)
8042282c: 06 69        	ld	s2, 64(sp)
8042282e: e2 79        	ld	s3, 56(sp)
80422830: 25 61        	addi	sp, sp, 96
80422832: 82 80        	ret
80422834: 01 ed        	bnez	a0, 0x8042284c <.text+0x284c>
80422836: 17 15 00 00  	auipc	a0, 1
8042283a: 13 05 25 13  	addi	a0, a0, 306
8042283e: 17 16 00 00  	auipc	a2, 1
80422842: 13 06 26 15  	addi	a2, a2, 338
80422846: 93 05 80 02  	li	a1, 40
8042284a: 11 a8        	j	0x8042285e <.text+0x285e>
8042284c: 17 15 00 00  	auipc	a0, 1
80422850: 13 05 c5 08  	addi	a0, a0, 140
80422854: 17 16 00 00  	auipc	a2, 1
80422858: 13 06 c6 0f  	addi	a2, a2, 252
8042285c: c5 45        	li	a1, 17
8042285e: 97 f0 ff ff  	auipc	ra, 1048575
80422862: e7 80 80 89  	jalr	-1896(ra)
80422866: 00 00        	unimp	
80422868: 05 65        	lui	a0, 1
8042286a: 85 45        	li	a1, 1
8042286c: 21 a0        	j	0x80422874 <.text+0x2874>
8042286e: 13 05 80 03  	li	a0, 56
80422872: a1 45        	li	a1, 8
80422874: 97 e0 ff ff  	auipc	ra, 1048574
80422878: e7 80 c0 c2  	jalr	-980(ra)
8042287c: 00 00        	unimp	
8042287e: 5d 71        	addi	sp, sp, -80
80422880: 86 e4        	sd	ra, 72(sp)
80422882: a2 e0        	sd	s0, 64(sp)
80422884: 26 fc        	sd	s1, 56(sp)
80422886: 4a f8        	sd	s2, 48(sp)
80422888: 4e f4        	sd	s3, 40(sp)
8042288a: ba 84        	mv	s1, a4
8042288c: 36 89        	mv	s2, a3
8042288e: 2a 84        	mv	s0, a0
80422890: 28 00        	addi	a0, sp, 8
80422892: 63 f4 e6 02  	bgeu	a3, a4, 0x804228ba <.text+0x28ba>
80422896: a6 86        	mv	a3, s1
80422898: 97 00 00 00  	auipc	ra, 0
8042289c: e7 80 40 06  	jalr	100(ra)
804228a0: a2 65        	ld	a1, 8(sp)
804228a2: 42 66        	ld	a2, 16(sp)
804228a4: e2 69        	ld	s3, 24(sp)
804228a6: 82 74        	ld	s1, 32(sp)
804228a8: 28 00        	addi	a0, sp, 8
804228aa: ca 86        	mv	a3, s2
804228ac: 97 00 00 00  	auipc	ra, 0
804228b0: e7 80 00 05  	jalr	80(ra)
804228b4: 22 65        	ld	a0, 8(sp)
804228b6: c2 65        	ld	a1, 16(sp)
804228b8: 05 a0        	j	0x804228d8 <.text+0x28d8>
804228ba: 81 46        	li	a3, 0
804228bc: 97 00 00 00  	auipc	ra, 0
804228c0: e7 80 00 04  	jalr	64(ra)
804228c4: 82 75        	ld	a1, 32(sp)
804228c6: 63 e5 25 03  	bltu	a1, s2, 0x804228f0 <.text+0x28f0>
804228ca: 62 66        	ld	a2, 24(sp)
804228cc: 22 65        	ld	a0, 8(sp)
804228ce: c2 65        	ld	a1, 16(sp)
804228d0: b3 09 96 00  	add	s3, a2, s1
804228d4: b3 04 99 40  	sub	s1, s2, s1
804228d8: 23 30 34 01  	sd	s3, 0(s0)
804228dc: 04 e4        	sd	s1, 8(s0)
804228de: 08 e8        	sd	a0, 16(s0)
804228e0: 0c ec        	sd	a1, 24(s0)
804228e2: a6 60        	ld	ra, 72(sp)
804228e4: 06 64        	ld	s0, 64(sp)
804228e6: e2 74        	ld	s1, 56(sp)
804228e8: 42 79        	ld	s2, 48(sp)
804228ea: a2 79        	ld	s3, 40(sp)
804228ec: 61 61        	addi	sp, sp, 80
804228ee: 82 80        	ret
804228f0: 4a 85        	mv	a0, s2
804228f2: 97 e0 ff ff  	auipc	ra, 1048574
804228f6: e7 80 40 3d  	jalr	980(ra)
804228fa: 00 00        	unimp	
804228fc: 63 6a d6 00  	bltu	a2, a3, 0x80422910 <.text+0x2910>
80422900: 33 87 d5 00  	add	a4, a1, a3
80422904: 15 8e        	sub	a2, a2, a3
80422906: 0c e1        	sd	a1, 0(a0)
80422908: 14 e5        	sd	a3, 8(a0)
8042290a: 18 e9        	sd	a4, 16(a0)
8042290c: 10 ed        	sd	a2, 24(a0)
8042290e: 82 80        	ret
80422910: 17 15 00 00  	auipc	a0, 1
80422914: 13 05 85 09  	addi	a0, a0, 152
80422918: 17 16 00 00  	auipc	a2, 1
8042291c: 13 06 86 13  	addi	a2, a2, 312
80422920: 93 05 30 02  	li	a1, 35
80422924: 97 e0 ff ff  	auipc	ra, 1048574
80422928: e7 80 20 7d  	jalr	2002(ra)
8042292c: 00 00        	unimp	
8042292e: 17 65 00 00  	auipc	a0, 6
80422932: 13 05 a5 8b  	addi	a0, a0, -1862
80422936: 00 65        	ld	s0, 8(a0)
80422938: 13 05 04 01  	addi	a0, s0, 16
8042293c: 93 75 c5 ff  	andi	a1, a0, -4
80422940: 9b 16 35 00  	slliw	a3, a0, 3
80422944: 13 06 f0 0f  	li	a2, 255
80422948: 3b 16 d6 00  	sllw	a2, a2, a3
8042294c: 05 47        	li	a4, 1
8042294e: bb 16 d7 00  	sllw	a3, a4, a3
80422952: 82 16        	slli	a3, a3, 32
80422954: 81 92        	srli	a3, a3, 32
80422956: 82 82        	jr	t0
80422958: 2f a7 05 14  	lr.w.aq	a4, (a1)
8042295c: b3 77 c7 00  	and	a5, a4, a2
80422960: 81 eb        	bnez	a5, 0x80422970 <.text+0x2970>
80422962: b3 47 d7 00  	xor	a5, a4, a3
80422966: f1 8f        	and	a5, a5, a2
80422968: b9 8f        	xor	a5, a5, a4
8042296a: af a7 f5 18  	sc.w	a5, a5, (a1)
8042296e: ed f7        	bnez	a5, 0x80422958 <.text+0x2958>
80422970: 71 8f        	and	a4, a4, a2
80422972: 01 27        	sext.w	a4, a4
80422974: 82 82        	jr	t0
80422976: 17 03 00 00  	auipc	t1, 0
8042297a: 67 00 a3 23  	jr	570(t1)
8042297e: bd 46        	li	a3, 15
80422980: 63 fa c6 06  	bgeu	a3, a2, 0x804229f4 <.text+0x29f4>
80422984: bb 06 a0 40  	negw	a3, a0
80422988: 13 f8 76 00  	andi	a6, a3, 7
8042298c: b3 03 05 01  	add	t2, a0, a6
80422990: 63 0c 08 00  	beqz	a6, 0x804229a8 <.text+0x29a8>
80422994: aa 87        	mv	a5, a0
80422996: ae 86        	mv	a3, a1
80422998: 03 87 06 00  	lb	a4, 0(a3)
8042299c: 23 80 e7 00  	sb	a4, 0(a5)
804229a0: 85 07        	addi	a5, a5, 1
804229a2: 85 06        	addi	a3, a3, 1
804229a4: e3 ea 77 fe  	bltu	a5, t2, 0x80422998 <.text+0x2998>
804229a8: b3 88 05 01  	add	a7, a1, a6
804229ac: 33 08 06 41  	sub	a6, a2, a6
804229b0: 93 72 88 ff  	andi	t0, a6, -8
804229b4: 93 f5 78 00  	andi	a1, a7, 7
804229b8: b3 86 53 00  	add	a3, t2, t0
804229bc: 9d cd        	beqz	a1, 0x804229fa <.text+0x29fa>
804229be: 63 58 50 04  	blez	t0, 0x80422a0e <.text+0x2a0e>
804229c2: 13 93 35 00  	slli	t1, a1, 3
804229c6: 13 f7 88 ff  	andi	a4, a7, -8
804229ca: 10 63        	ld	a2, 0(a4)
804229cc: bb 05 60 40  	negw	a1, t1
804229d0: 13 fe 85 03  	andi	t3, a1, 56
804229d4: 93 07 87 00  	addi	a5, a4, 8
804229d8: 98 63        	ld	a4, 0(a5)
804229da: 33 56 66 00  	srl	a2, a2, t1
804229de: b3 15 c7 01  	sll	a1, a4, t3
804229e2: d1 8d        	or	a1, a1, a2
804229e4: 23 b0 b3 00  	sd	a1, 0(t2)
804229e8: a1 03        	addi	t2, t2, 8
804229ea: a1 07        	addi	a5, a5, 8
804229ec: 3a 86        	mv	a2, a4
804229ee: e3 e5 d3 fe  	bltu	t2, a3, 0x804229d8 <.text+0x29d8>
804229f2: 31 a8        	j	0x80422a0e <.text+0x2a0e>
804229f4: aa 86        	mv	a3, a0
804229f6: 0d e2        	bnez	a2, 0x80422a18 <.text+0x2a18>
804229f8: 0d a8        	j	0x80422a2a <.text+0x2a2a>
804229fa: 63 5a 50 00  	blez	t0, 0x80422a0e <.text+0x2a0e>
804229fe: c6 85        	mv	a1, a7
80422a00: 90 61        	ld	a2, 0(a1)
80422a02: 23 b0 c3 00  	sd	a2, 0(t2)
80422a06: a1 03        	addi	t2, t2, 8
80422a08: a1 05        	addi	a1, a1, 8
80422a0a: e3 eb d3 fe  	bltu	t2, a3, 0x80422a00 <.text+0x2a00>
80422a0e: b3 85 58 00  	add	a1, a7, t0
80422a12: 13 76 78 00  	andi	a2, a6, 7
80422a16: 11 ca        	beqz	a2, 0x80422a2a <.text+0x2a2a>
80422a18: 36 96        	add	a2, a2, a3
80422a1a: 03 87 05 00  	lb	a4, 0(a1)
80422a1e: 23 80 e6 00  	sb	a4, 0(a3)
80422a22: 85 06        	addi	a3, a3, 1
80422a24: 85 05        	addi	a1, a1, 1
80422a26: e3 ea c6 fe  	bltu	a3, a2, 0x80422a1a <.text+0x2a1a>
80422a2a: 82 80        	ret
80422a2c: b3 06 b5 40  	sub	a3, a0, a1
80422a30: 63 f6 c6 08  	bgeu	a3, a2, 0x80422abc <.text+0x2abc>
80422a34: b3 06 c5 00  	add	a3, a0, a2
80422a38: 3d 47        	li	a4, 15
80422a3a: b3 82 c5 00  	add	t0, a1, a2
80422a3e: 63 7a c7 0e  	bgeu	a4, a2, 0x80422b32 <.text+0x2b32>
80422a42: 13 f8 76 00  	andi	a6, a3, 7
80422a46: b3 08 00 41  	neg	a7, a6
80422a4a: 93 f3 86 ff  	andi	t2, a3, -8
80422a4e: 63 0f 08 00  	beqz	a6, 0x80422a6c <.text+0x2a6c>
80422a52: b3 87 c5 00  	add	a5, a1, a2
80422a56: fd 17        	addi	a5, a5, -1
80422a58: 03 83 07 00  	lb	t1, 0(a5)
80422a5c: 13 87 f6 ff  	addi	a4, a3, -1
80422a60: a3 8f 66 fe  	sb	t1, -1(a3)
80422a64: fd 17        	addi	a5, a5, -1
80422a66: ba 86        	mv	a3, a4
80422a68: e3 e8 e3 fe  	bltu	t2, a4, 0x80422a58 <.text+0x2a58>
80422a6c: 96 98        	add	a7, a7, t0
80422a6e: b3 02 06 41  	sub	t0, a2, a6
80422a72: 93 f6 82 ff  	andi	a3, t0, -8
80422a76: 13 f6 78 00  	andi	a2, a7, 7
80422a7a: 33 08 d0 40  	neg	a6, a3
80422a7e: b3 86 d3 40  	sub	a3, t2, a3
80422a82: 4d ce        	beqz	a2, 0x80422b3c <.text+0x2b3c>
80422a84: 63 59 08 0c  	bgez	a6, 0x80422b56 <.text+0x2b56>
80422a88: 13 13 36 00  	slli	t1, a2, 3
80422a8c: 13 f6 88 ff  	andi	a2, a7, -8
80422a90: 0c 62        	ld	a1, 0(a2)
80422a92: 3b 07 60 40  	negw	a4, t1
80422a96: 13 7e 87 03  	andi	t3, a4, 56
80422a9a: 61 16        	addi	a2, a2, -8
80422a9c: 18 62        	ld	a4, 0(a2)
80422a9e: b3 95 c5 01  	sll	a1, a1, t3
80422aa2: b3 57 67 00  	srl	a5, a4, t1
80422aa6: dd 8d        	or	a1, a1, a5
80422aa8: 93 87 83 ff  	addi	a5, t2, -8
80422aac: 23 bc b3 fe  	sd	a1, -8(t2)
80422ab0: 61 16        	addi	a2, a2, -8
80422ab2: be 83        	mv	t2, a5
80422ab4: ba 85        	mv	a1, a4
80422ab6: e3 e3 f6 fe  	bltu	a3, a5, 0x80422a9c <.text+0x2a9c>
80422aba: 71 a8        	j	0x80422b56 <.text+0x2b56>
80422abc: bd 46        	li	a3, 15
80422abe: 63 fc c6 06  	bgeu	a3, a2, 0x80422b36 <.text+0x2b36>
80422ac2: bb 06 a0 40  	negw	a3, a0
80422ac6: 13 f8 76 00  	andi	a6, a3, 7
80422aca: b3 03 05 01  	add	t2, a0, a6
80422ace: 63 0c 08 00  	beqz	a6, 0x80422ae6 <.text+0x2ae6>
80422ad2: aa 87        	mv	a5, a0
80422ad4: ae 86        	mv	a3, a1
80422ad6: 03 87 06 00  	lb	a4, 0(a3)
80422ada: 23 80 e7 00  	sb	a4, 0(a5)
80422ade: 85 07        	addi	a5, a5, 1
80422ae0: 85 06        	addi	a3, a3, 1
80422ae2: e3 ea 77 fe  	bltu	a5, t2, 0x80422ad6 <.text+0x2ad6>
80422ae6: b3 88 05 01  	add	a7, a1, a6
80422aea: 33 08 06 41  	sub	a6, a2, a6
80422aee: 93 72 88 ff  	andi	t0, a6, -8
80422af2: 93 f5 78 00  	andi	a1, a7, 7
80422af6: b3 86 53 00  	add	a3, t2, t0
80422afa: d1 c1        	beqz	a1, 0x80422b7e <.text+0x2b7e>
80422afc: 63 5b 50 08  	blez	t0, 0x80422b92 <.text+0x2b92>
80422b00: 13 93 35 00  	slli	t1, a1, 3
80422b04: 13 f7 88 ff  	andi	a4, a7, -8
80422b08: 10 63        	ld	a2, 0(a4)
80422b0a: bb 05 60 40  	negw	a1, t1
80422b0e: 13 fe 85 03  	andi	t3, a1, 56
80422b12: 93 07 87 00  	addi	a5, a4, 8
80422b16: 98 63        	ld	a4, 0(a5)
80422b18: 33 56 66 00  	srl	a2, a2, t1
80422b1c: b3 15 c7 01  	sll	a1, a4, t3
80422b20: d1 8d        	or	a1, a1, a2
80422b22: 23 b0 b3 00  	sd	a1, 0(t2)
80422b26: a1 03        	addi	t2, t2, 8
80422b28: a1 07        	addi	a5, a5, 8
80422b2a: 3a 86        	mv	a2, a4
80422b2c: e3 e5 d3 fe  	bltu	t2, a3, 0x80422b16 <.text+0x2b16>
80422b30: 8d a0        	j	0x80422b92 <.text+0x2b92>
80422b32: aa 85        	mv	a1, a0
80422b34: 05 a8        	j	0x80422b64 <.text+0x2b64>
80422b36: aa 86        	mv	a3, a0
80422b38: 35 e2        	bnez	a2, 0x80422b9c <.text+0x2b9c>
80422b3a: 95 a8        	j	0x80422bae <.text+0x2bae>
80422b3c: 63 5d 08 00  	bgez	a6, 0x80422b56 <.text+0x2b56>
80422b40: 96 95        	add	a1, a1, t0
80422b42: e1 15        	addi	a1, a1, -8
80422b44: 90 61        	ld	a2, 0(a1)
80422b46: 13 87 83 ff  	addi	a4, t2, -8
80422b4a: 23 bc c3 fe  	sd	a2, -8(t2)
80422b4e: e1 15        	addi	a1, a1, -8
80422b50: ba 83        	mv	t2, a4
80422b52: e3 e9 e6 fe  	bltu	a3, a4, 0x80422b44 <.text+0x2b44>
80422b56: 93 f5 72 00  	andi	a1, t0, 7
80422b5a: b1 c9        	beqz	a1, 0x80422bae <.text+0x2bae>
80422b5c: b3 82 08 01  	add	t0, a7, a6
80422b60: b3 85 b6 40  	sub	a1, a3, a1
80422b64: 13 86 f2 ff  	addi	a2, t0, -1
80422b68: 03 07 06 00  	lb	a4, 0(a2)
80422b6c: 93 87 f6 ff  	addi	a5, a3, -1
80422b70: a3 8f e6 fe  	sb	a4, -1(a3)
80422b74: 7d 16        	addi	a2, a2, -1
80422b76: be 86        	mv	a3, a5
80422b78: e3 e8 f5 fe  	bltu	a1, a5, 0x80422b68 <.text+0x2b68>
80422b7c: 0d a8        	j	0x80422bae <.text+0x2bae>
80422b7e: 63 5a 50 00  	blez	t0, 0x80422b92 <.text+0x2b92>
80422b82: c6 85        	mv	a1, a7
80422b84: 90 61        	ld	a2, 0(a1)
80422b86: 23 b0 c3 00  	sd	a2, 0(t2)
80422b8a: a1 03        	addi	t2, t2, 8
80422b8c: a1 05        	addi	a1, a1, 8
80422b8e: e3 eb d3 fe  	bltu	t2, a3, 0x80422b84 <.text+0x2b84>
80422b92: b3 85 58 00  	add	a1, a7, t0
80422b96: 13 76 78 00  	andi	a2, a6, 7
80422b9a: 11 ca        	beqz	a2, 0x80422bae <.text+0x2bae>
80422b9c: 36 96        	add	a2, a2, a3
80422b9e: 03 87 05 00  	lb	a4, 0(a1)
80422ba2: 23 80 e6 00  	sb	a4, 0(a3)
80422ba6: 85 06        	addi	a3, a3, 1
80422ba8: 85 05        	addi	a1, a1, 1
80422baa: e3 ea c6 fe  	bltu	a3, a2, 0x80422b9e <.text+0x2b9e>
80422bae: 82 80        	ret
80422bb0: bd 46        	li	a3, 15
80422bb2: 63 fa c6 04  	bgeu	a3, a2, 0x80422c06 <.text+0x2c06>
80422bb6: bb 06 a0 40  	negw	a3, a0
80422bba: 9d 8a        	andi	a3, a3, 7
80422bbc: 33 07 d5 00  	add	a4, a0, a3
80422bc0: 99 c6        	beqz	a3, 0x80422bce <.text+0x2bce>
80422bc2: aa 87        	mv	a5, a0
80422bc4: 23 80 b7 00  	sb	a1, 0(a5)
80422bc8: 85 07        	addi	a5, a5, 1
80422bca: e3 ed e7 fe  	bltu	a5, a4, 0x80422bc4 <.text+0x2bc4>
80422bce: b3 08 d6 40  	sub	a7, a2, a3
80422bd2: 93 f7 88 ff  	andi	a5, a7, -8
80422bd6: b3 06 f7 00  	add	a3, a4, a5
80422bda: 63 52 f0 02  	blez	a5, 0x80422bfe <.text+0x2bfe>
80422bde: 13 98 85 03  	slli	a6, a1, 56
80422be2: b7 17 10 10  	lui	a5, 65793
80422be6: 92 07        	slli	a5, a5, 4
80422be8: 93 87 07 10  	addi	a5, a5, 256
80422bec: b3 37 f8 02  	mulhu	a5, a6, a5
80422bf0: 13 96 07 02  	slli	a2, a5, 32
80422bf4: d1 8f        	or	a5, a5, a2
80422bf6: 1c e3        	sd	a5, 0(a4)
80422bf8: 21 07        	addi	a4, a4, 8
80422bfa: e3 6e d7 fe  	bltu	a4, a3, 0x80422bf6 <.text+0x2bf6>
80422bfe: 13 f6 78 00  	andi	a2, a7, 7
80422c02: 01 e6        	bnez	a2, 0x80422c0a <.text+0x2c0a>
80422c04: 09 a8        	j	0x80422c16 <.text+0x2c16>
80422c06: aa 86        	mv	a3, a0
80422c08: 19 c6        	beqz	a2, 0x80422c16 <.text+0x2c16>
80422c0a: 36 96        	add	a2, a2, a3
80422c0c: 23 80 b6 00  	sb	a1, 0(a3)
80422c10: 85 06        	addi	a3, a3, 1
80422c12: e3 ed c6 fe  	bltu	a3, a2, 0x80422c0c <.text+0x2c0c>
80422c16: 82 80        	ret
80422c18: 17 03 00 00  	auipc	t1, 0
80422c1c: 67 00 43 e1  	jr	-492(t1)
80422c20: 17 03 00 00  	auipc	t1, 0
80422c24: 67 00 e3 d5  	jr	-674(t1)
